
void.elf:     file format elf32-avr

Sections:
Idx Name          Size      VMA       LMA       File off  Algn
  0 .data         00000038  00800100  00001ace  00001b62  2**0
                  CONTENTS, ALLOC, LOAD, DATA
  1 .text         00001ace  00000000  00000000  00000094  2**1
                  CONTENTS, ALLOC, LOAD, READONLY, CODE
  2 .bss          00000143  00800138  00800138  00001b9a  2**0
                  ALLOC
  3 .comment      00000030  00000000  00000000  00001b9a  2**0
                  CONTENTS, READONLY
  4 .note.gnu.avr.deviceinfo 00000040  00000000  00000000  00001bcc  2**2
                  CONTENTS, READONLY
  5 .debug_aranges 000004f0  00000000  00000000  00001c0c  2**0
                  CONTENTS, READONLY, DEBUGGING
  6 .debug_info   0000c95d  00000000  00000000  000020fc  2**0
                  CONTENTS, READONLY, DEBUGGING
  7 .debug_abbrev 00002a04  00000000  00000000  0000ea59  2**0
                  CONTENTS, READONLY, DEBUGGING
  8 .debug_line   000031ce  00000000  00000000  0001145d  2**0
                  CONTENTS, READONLY, DEBUGGING
  9 .debug_frame  00000f4c  00000000  00000000  0001462c  2**2
                  CONTENTS, READONLY, DEBUGGING
 10 .debug_str    00002cca  00000000  00000000  00015578  2**0
                  CONTENTS, READONLY, DEBUGGING
 11 .debug_loc    0000550b  00000000  00000000  00018242  2**0
                  CONTENTS, READONLY, DEBUGGING
 12 .debug_ranges 000004e8  00000000  00000000  0001d74d  2**0
                  CONTENTS, READONLY, DEBUGGING

Disassembly of section .text:

00000000 <__vectors>:
       0:	0c 94 69 00 	jmp	0xd2	; 0xd2 <__ctors_end>
       4:	0c 94 a9 0a 	jmp	0x1552	; 0x1552 <__vector_1>
       8:	0c 94 d0 0a 	jmp	0x15a0	; 0x15a0 <__vector_2>
       c:	0c 94 02 03 	jmp	0x604	; 0x604 <__vector_3>
      10:	0c 94 02 03 	jmp	0x604	; 0x604 <__vector_3>
      14:	0c 94 02 03 	jmp	0x604	; 0x604 <__vector_3>
      18:	0c 94 91 00 	jmp	0x122	; 0x122 <__bad_interrupt>
      1c:	0c 94 2c 0a 	jmp	0x1458	; 0x1458 <__vector_7>
      20:	0c 94 91 00 	jmp	0x122	; 0x122 <__bad_interrupt>
      24:	0c 94 91 00 	jmp	0x122	; 0x122 <__bad_interrupt>
      28:	0c 94 91 00 	jmp	0x122	; 0x122 <__bad_interrupt>
      2c:	0c 94 41 02 	jmp	0x482	; 0x482 <__vector_11>
      30:	0c 94 91 00 	jmp	0x122	; 0x122 <__bad_interrupt>
      34:	0c 94 91 00 	jmp	0x122	; 0x122 <__bad_interrupt>
      38:	0c 94 91 00 	jmp	0x122	; 0x122 <__bad_interrupt>
      3c:	0c 94 91 00 	jmp	0x122	; 0x122 <__bad_interrupt>
      40:	0c 94 f7 0a 	jmp	0x15ee	; 0x15ee <__vector_16>
      44:	0c 94 91 00 	jmp	0x122	; 0x122 <__bad_interrupt>
      48:	0c 94 81 06 	jmp	0xd02	; 0xd02 <__vector_18>
      4c:	0c 94 b3 06 	jmp	0xd66	; 0xd66 <__vector_19>
      50:	0c 94 91 00 	jmp	0x122	; 0x122 <__bad_interrupt>
      54:	0c 94 91 00 	jmp	0x122	; 0x122 <__bad_interrupt>
      58:	0c 94 91 00 	jmp	0x122	; 0x122 <__bad_interrupt>
      5c:	0c 94 91 00 	jmp	0x122	; 0x122 <__bad_interrupt>
      60:	0c 94 91 00 	jmp	0x122	; 0x122 <__bad_interrupt>
      64:	0c 94 91 00 	jmp	0x122	; 0x122 <__bad_interrupt>
      68:	49 04       	cpc	r4, r9
      6a:	4f 04       	cpc	r4, r15
      6c:	59 04       	cpc	r5, r9
      6e:	67 04       	cpc	r6, r7
      70:	69 04       	cpc	r6, r9
      72:	6f 04       	cpc	r6, r15
      74:	79 04       	cpc	r7, r9
      76:	87 04       	cpc	r8, r7
      78:	99 04       	cpc	r9, r9
      7a:	9b 04       	cpc	r9, r11

0000007c <__trampolines_end>:
      7c:	02 00       	Address 0x0000007c is out of bounds.
.word	0xffff	; ????

0000007d <digital_pin_to_timer_PGM>:
      7d:	00 00 00 08 00 02 01 00 00 03 04 07 00 00 00 00     ................
      8d:	00 00 00 00                                         ....

00000091 <digital_pin_to_bit_mask_PGM>:
      91:	01 02 04 08 10 20 40 80 01 02 04 08 10 20 01 02     ..... @...... ..
      a1:	04 08 10 20                                         ... 

000000a5 <digital_pin_to_port_PGM>:
      a5:	04 04 04 04 04 04 04 04 02 02 02 02 02 02 03 03     ................
      b5:	03 03 03 03                                         ....

000000b9 <port_to_output_PGM>:
      b9:	00 00 00 00 25 00 28 00 2b 00                       ....%.(.+.

000000c3 <port_to_mode_PGM>:
      c3:	00 00 00 00 24 00 27 00 2a 00 00                    ....$.'.*..

000000ce <__ctors_start>:
      ce:	29 02       	muls	r18, r25
      d0:	e3 06       	cpc	r14, r19

000000d2 <__ctors_end>:
      d2:	11 24       	eor	r1, r1
      d4:	1f be       	out	0x3f, r1	; 63
      d6:	cf ef       	ldi	r28, 0xFF	; 255
      d8:	d8 e0       	ldi	r29, 0x08	; 8
      da:	de bf       	out	0x3e, r29	; 62
      dc:	cd bf       	out	0x3d, r28	; 61

000000de <__do_copy_data>:
      de:	11 e0       	ldi	r17, 0x01	; 1
      e0:	a0 e0       	ldi	r26, 0x00	; 0
      e2:	b1 e0       	ldi	r27, 0x01	; 1
      e4:	ee ec       	ldi	r30, 0xCE	; 206
      e6:	fa e1       	ldi	r31, 0x1A	; 26
      e8:	02 c0       	rjmp	.+4      	; 0xee <__do_copy_data+0x10>
      ea:	05 90       	lpm	r0, Z+
      ec:	0d 92       	st	X+, r0
      ee:	a8 33       	cpi	r26, 0x38	; 56
      f0:	b1 07       	cpc	r27, r17
      f2:	d9 f7       	brne	.-10     	; 0xea <__do_copy_data+0xc>

000000f4 <__do_clear_bss>:
      f4:	22 e0       	ldi	r18, 0x02	; 2
      f6:	a8 e3       	ldi	r26, 0x38	; 56
      f8:	b1 e0       	ldi	r27, 0x01	; 1
      fa:	01 c0       	rjmp	.+2      	; 0xfe <.do_clear_bss_start>

000000fc <.do_clear_bss_loop>:
      fc:	1d 92       	st	X+, r1

000000fe <.do_clear_bss_start>:
      fe:	ab 37       	cpi	r26, 0x7B	; 123
     100:	b2 07       	cpc	r27, r18
     102:	e1 f7       	brne	.-8      	; 0xfc <.do_clear_bss_loop>

00000104 <__do_global_ctors>:
     104:	10 e0       	ldi	r17, 0x00	; 0
     106:	c9 e6       	ldi	r28, 0x69	; 105
     108:	d0 e0       	ldi	r29, 0x00	; 0
     10a:	04 c0       	rjmp	.+8      	; 0x114 <__do_global_ctors+0x10>
     10c:	21 97       	sbiw	r28, 0x01	; 1
     10e:	fe 01       	movw	r30, r28
     110:	0e 94 31 0d 	call	0x1a62	; 0x1a62 <__tablejump2__>
     114:	c7 36       	cpi	r28, 0x67	; 103
     116:	d1 07       	cpc	r29, r17
     118:	c9 f7       	brne	.-14     	; 0x10c <__do_global_ctors+0x8>
     11a:	0e 94 11 07 	call	0xe22	; 0xe22 <main>
     11e:	0c 94 65 0d 	jmp	0x1aca	; 0x1aca <_exit>

00000122 <__bad_interrupt>:
     122:	0c 94 00 00 	jmp	0	; 0x0 <__vectors>

00000126 <_Z7landingv>:
	myStepper.step(STEPPERREV/3);
}

//Interrupt functions
void landing(){
	landingFlag = HIGH;
     126:	81 e0       	ldi	r24, 0x01	; 1
     128:	90 e0       	ldi	r25, 0x00	; 0
     12a:	90 93 55 01 	sts	0x0155, r25	; 0x800155 <landingFlag+0x1>
     12e:	80 93 54 01 	sts	0x0154, r24	; 0x800154 <landingFlag>
     132:	08 95       	ret

00000134 <_Z9emergencyv>:
}
void emergency(){
	emergencyFlag = HIGH;
     134:	81 e0       	ldi	r24, 0x01	; 1
     136:	90 e0       	ldi	r25, 0x00	; 0
     138:	90 93 53 01 	sts	0x0153, r25	; 0x800153 <emergencyFlag+0x1>
     13c:	80 93 52 01 	sts	0x0152, r24	; 0x800152 <emergencyFlag>
     140:	08 95       	ret

00000142 <_Z6setREDv>:
//Object declaration
Stepper myStepper(STEPPERREV, pinIn1, pinIn3, pinIn2, pinIn4);

//Functions for RGB led
void setRED(){
	Serial.println("red");
     142:	6d e0       	ldi	r22, 0x0D	; 13
     144:	71 e0       	ldi	r23, 0x01	; 1
     146:	80 ec       	ldi	r24, 0xC0	; 192
     148:	91 e0       	ldi	r25, 0x01	; 1
     14a:	0e 94 63 07 	call	0xec6	; 0xec6 <_ZN5Print7printlnEPKc>
	analogWrite(pinR, 255);
     14e:	6f ef       	ldi	r22, 0xFF	; 255
     150:	70 e0       	ldi	r23, 0x00	; 0
     152:	85 e0       	ldi	r24, 0x05	; 5
     154:	0e 94 e8 0b 	call	0x17d0	; 0x17d0 <analogWrite>
	analogWrite(pinG, 0);
     158:	60 e0       	ldi	r22, 0x00	; 0
     15a:	70 e0       	ldi	r23, 0x00	; 0
     15c:	86 e0       	ldi	r24, 0x06	; 6
     15e:	0c 94 e8 0b 	jmp	0x17d0	; 0x17d0 <analogWrite>

00000162 <_Z8setGREENv>:
}
void setGREEN(){
	Serial.println("green");
     162:	61 e1       	ldi	r22, 0x11	; 17
     164:	71 e0       	ldi	r23, 0x01	; 1
     166:	80 ec       	ldi	r24, 0xC0	; 192
     168:	91 e0       	ldi	r25, 0x01	; 1
     16a:	0e 94 63 07 	call	0xec6	; 0xec6 <_ZN5Print7printlnEPKc>
	analogWrite(pinR, 0);
     16e:	60 e0       	ldi	r22, 0x00	; 0
     170:	70 e0       	ldi	r23, 0x00	; 0
     172:	85 e0       	ldi	r24, 0x05	; 5
     174:	0e 94 e8 0b 	call	0x17d0	; 0x17d0 <analogWrite>
	analogWrite(pinG, 255);
     178:	6f ef       	ldi	r22, 0xFF	; 255
     17a:	70 e0       	ldi	r23, 0x00	; 0
     17c:	86 e0       	ldi	r24, 0x06	; 6
     17e:	0c 94 e8 0b 	jmp	0x17d0	; 0x17d0 <analogWrite>

00000182 <_Z10landObjectv>:
}

//Function for landing parcel
void landObject(){
	myStepper.step(-STEPPERREV/3);
     182:	66 e5       	ldi	r22, 0x56	; 86
     184:	7d ef       	ldi	r23, 0xFD	; 253
     186:	88 e3       	ldi	r24, 0x38	; 56
     188:	91 e0       	ldi	r25, 0x01	; 1
     18a:	0e 94 b8 04 	call	0x970	; 0x970 <_ZN7Stepper4stepEi>
	delayMicroseconds(100);
     18e:	84 e6       	ldi	r24, 0x64	; 100
     190:	90 e0       	ldi	r25, 0x00	; 0
     192:	0e 94 a2 0b 	call	0x1744	; 0x1744 <delayMicroseconds>
	myStepper.step(STEPPERREV/3);
     196:	6a ea       	ldi	r22, 0xAA	; 170
     198:	72 e0       	ldi	r23, 0x02	; 2
     19a:	88 e3       	ldi	r24, 0x38	; 56
     19c:	91 e0       	ldi	r25, 0x01	; 1
     19e:	0c 94 b8 04 	jmp	0x970	; 0x970 <_ZN7Stepper4stepEi>

000001a2 <_Z11playOneClapii>:
void emergency(){
	emergencyFlag = HIGH;
}

//Function for passive buzzer
void playOneClap(int pitch, int duration){
     1a2:	cf 93       	push	r28
     1a4:	df 93       	push	r29
     1a6:	eb 01       	movw	r28, r22
	tone(pinPSV, pitch);
     1a8:	20 e0       	ldi	r18, 0x00	; 0
     1aa:	30 e0       	ldi	r19, 0x00	; 0
     1ac:	a9 01       	movw	r20, r18
     1ae:	bc 01       	movw	r22, r24
     1b0:	8c e0       	ldi	r24, 0x0C	; 12
     1b2:	0e 94 75 07 	call	0xeea	; 0xeea <_Z4tonehjm>
	delay(duration);
     1b6:	be 01       	movw	r22, r28
     1b8:	dd 0f       	add	r29, r29
     1ba:	88 0b       	sbc	r24, r24
     1bc:	99 0b       	sbc	r25, r25
     1be:	0e 94 66 0b 	call	0x16cc	; 0x16cc <delay>
	noTone(pinPSV);
     1c2:	8c e0       	ldi	r24, 0x0C	; 12
     1c4:	0e 94 17 0a 	call	0x142e	; 0x142e <_Z6noToneh>
	delay(pinPSV/10);
     1c8:	61 e0       	ldi	r22, 0x01	; 1
     1ca:	70 e0       	ldi	r23, 0x00	; 0
     1cc:	80 e0       	ldi	r24, 0x00	; 0
     1ce:	90 e0       	ldi	r25, 0x00	; 0
}
     1d0:	df 91       	pop	r29
     1d2:	cf 91       	pop	r28
//Function for passive buzzer
void playOneClap(int pitch, int duration){
	tone(pinPSV, pitch);
	delay(duration);
	noTone(pinPSV);
	delay(pinPSV/10);
     1d4:	0c 94 66 0b 	jmp	0x16cc	; 0x16cc <delay>

000001d8 <_Z9playMusicv>:
}

//Function for playing emergency music
void playMusic(){
	playOneClap(mi, clap/8);
     1d8:	6a ef       	ldi	r22, 0xFA	; 250
     1da:	70 e0       	ldi	r23, 0x00	; 0
     1dc:	80 91 06 01 	lds	r24, 0x0106	; 0x800106 <mi>
     1e0:	90 91 07 01 	lds	r25, 0x0107	; 0x800107 <mi+0x1>
     1e4:	0e 94 d1 00 	call	0x1a2	; 0x1a2 <_Z11playOneClapii>
	playOneClap(sol, clap/8);
     1e8:	6a ef       	ldi	r22, 0xFA	; 250
     1ea:	70 e0       	ldi	r23, 0x00	; 0
     1ec:	80 91 02 01 	lds	r24, 0x0102	; 0x800102 <sol>
     1f0:	90 91 03 01 	lds	r25, 0x0103	; 0x800103 <sol+0x1>
     1f4:	0e 94 d1 00 	call	0x1a2	; 0x1a2 <_Z11playOneClapii>
	playOneClap(sol, clap/8);
     1f8:	6a ef       	ldi	r22, 0xFA	; 250
     1fa:	70 e0       	ldi	r23, 0x00	; 0
     1fc:	80 91 02 01 	lds	r24, 0x0102	; 0x800102 <sol>
     200:	90 91 03 01 	lds	r25, 0x0103	; 0x800103 <sol+0x1>
     204:	0e 94 d1 00 	call	0x1a2	; 0x1a2 <_Z11playOneClapii>
	noTone(pinPSV);
     208:	8c e0       	ldi	r24, 0x0C	; 12
     20a:	0e 94 17 0a 	call	0x142e	; 0x142e <_Z6noToneh>
	delay(clap/8);
     20e:	6a ef       	ldi	r22, 0xFA	; 250
     210:	70 e0       	ldi	r23, 0x00	; 0
     212:	80 e0       	ldi	r24, 0x00	; 0
     214:	90 e0       	ldi	r25, 0x00	; 0
     216:	0e 94 66 0b 	call	0x16cc	; 0x16cc <delay>
	playOneClap(mi, clap/8);
     21a:	6a ef       	ldi	r22, 0xFA	; 250
     21c:	70 e0       	ldi	r23, 0x00	; 0
     21e:	80 91 06 01 	lds	r24, 0x0106	; 0x800106 <mi>
     222:	90 91 07 01 	lds	r25, 0x0107	; 0x800107 <mi+0x1>
     226:	0e 94 d1 00 	call	0x1a2	; 0x1a2 <_Z11playOneClapii>
	playOneClap(sol, clap/8);
     22a:	6a ef       	ldi	r22, 0xFA	; 250
     22c:	70 e0       	ldi	r23, 0x00	; 0
     22e:	80 91 02 01 	lds	r24, 0x0102	; 0x800102 <sol>
     232:	90 91 03 01 	lds	r25, 0x0103	; 0x800103 <sol+0x1>
     236:	0e 94 d1 00 	call	0x1a2	; 0x1a2 <_Z11playOneClapii>
	playOneClap(sol, clap/8);
     23a:	6a ef       	ldi	r22, 0xFA	; 250
     23c:	70 e0       	ldi	r23, 0x00	; 0
     23e:	80 91 02 01 	lds	r24, 0x0102	; 0x800102 <sol>
     242:	90 91 03 01 	lds	r25, 0x0103	; 0x800103 <sol+0x1>
     246:	0e 94 d1 00 	call	0x1a2	; 0x1a2 <_Z11playOneClapii>
	noTone(pinPSV);
     24a:	8c e0       	ldi	r24, 0x0C	; 12
     24c:	0e 94 17 0a 	call	0x142e	; 0x142e <_Z6noToneh>
	delay(clap/8);
     250:	6a ef       	ldi	r22, 0xFA	; 250
     252:	70 e0       	ldi	r23, 0x00	; 0
     254:	80 e0       	ldi	r24, 0x00	; 0
     256:	90 e0       	ldi	r25, 0x00	; 0
     258:	0e 94 66 0b 	call	0x16cc	; 0x16cc <delay>
	playOneClap(ra, clap/8);
     25c:	6a ef       	ldi	r22, 0xFA	; 250
     25e:	70 e0       	ldi	r23, 0x00	; 0
     260:	80 91 00 01 	lds	r24, 0x0100	; 0x800100 <__data_start>
     264:	90 91 01 01 	lds	r25, 0x0101	; 0x800101 <__data_start+0x1>
     268:	0e 94 d1 00 	call	0x1a2	; 0x1a2 <_Z11playOneClapii>
	playOneClap(ra, clap/8);
     26c:	6a ef       	ldi	r22, 0xFA	; 250
     26e:	70 e0       	ldi	r23, 0x00	; 0
     270:	80 91 00 01 	lds	r24, 0x0100	; 0x800100 <__data_start>
     274:	90 91 01 01 	lds	r25, 0x0101	; 0x800101 <__data_start+0x1>
     278:	0e 94 d1 00 	call	0x1a2	; 0x1a2 <_Z11playOneClapii>
	playOneClap(ra, clap/8);
     27c:	6a ef       	ldi	r22, 0xFA	; 250
     27e:	70 e0       	ldi	r23, 0x00	; 0
     280:	80 91 00 01 	lds	r24, 0x0100	; 0x800100 <__data_start>
     284:	90 91 01 01 	lds	r25, 0x0101	; 0x800101 <__data_start+0x1>
     288:	0e 94 d1 00 	call	0x1a2	; 0x1a2 <_Z11playOneClapii>
	playOneClap(ra, clap/8);
     28c:	6a ef       	ldi	r22, 0xFA	; 250
     28e:	70 e0       	ldi	r23, 0x00	; 0
     290:	80 91 00 01 	lds	r24, 0x0100	; 0x800100 <__data_start>
     294:	90 91 01 01 	lds	r25, 0x0101	; 0x800101 <__data_start+0x1>
     298:	0e 94 d1 00 	call	0x1a2	; 0x1a2 <_Z11playOneClapii>
	playOneClap(ra, clap/4);
     29c:	64 ef       	ldi	r22, 0xF4	; 244
     29e:	71 e0       	ldi	r23, 0x01	; 1
     2a0:	80 91 00 01 	lds	r24, 0x0100	; 0x800100 <__data_start>
     2a4:	90 91 01 01 	lds	r25, 0x0101	; 0x800101 <__data_start+0x1>
     2a8:	0e 94 d1 00 	call	0x1a2	; 0x1a2 <_Z11playOneClapii>
	noTone(pinPSV);
     2ac:	8c e0       	ldi	r24, 0x0C	; 12
     2ae:	0e 94 17 0a 	call	0x142e	; 0x142e <_Z6noToneh>
	delay(clap/4);
     2b2:	64 ef       	ldi	r22, 0xF4	; 244
     2b4:	71 e0       	ldi	r23, 0x01	; 1
     2b6:	80 e0       	ldi	r24, 0x00	; 0
     2b8:	90 e0       	ldi	r25, 0x00	; 0
     2ba:	0e 94 66 0b 	call	0x16cc	; 0x16cc <delay>
	
	playOneClap(sol, clap/8);
     2be:	6a ef       	ldi	r22, 0xFA	; 250
     2c0:	70 e0       	ldi	r23, 0x00	; 0
     2c2:	80 91 02 01 	lds	r24, 0x0102	; 0x800102 <sol>
     2c6:	90 91 03 01 	lds	r25, 0x0103	; 0x800103 <sol+0x1>
     2ca:	0e 94 d1 00 	call	0x1a2	; 0x1a2 <_Z11playOneClapii>
	playOneClap(sol, clap/8);
     2ce:	6a ef       	ldi	r22, 0xFA	; 250
     2d0:	70 e0       	ldi	r23, 0x00	; 0
     2d2:	80 91 02 01 	lds	r24, 0x0102	; 0x800102 <sol>
     2d6:	90 91 03 01 	lds	r25, 0x0103	; 0x800103 <sol+0x1>
     2da:	0e 94 d1 00 	call	0x1a2	; 0x1a2 <_Z11playOneClapii>
	playOneClap(sol, clap/8);
     2de:	6a ef       	ldi	r22, 0xFA	; 250
     2e0:	70 e0       	ldi	r23, 0x00	; 0
     2e2:	80 91 02 01 	lds	r24, 0x0102	; 0x800102 <sol>
     2e6:	90 91 03 01 	lds	r25, 0x0103	; 0x800103 <sol+0x1>
     2ea:	0e 94 d1 00 	call	0x1a2	; 0x1a2 <_Z11playOneClapii>
	playOneClap(sol, clap/8);
     2ee:	6a ef       	ldi	r22, 0xFA	; 250
     2f0:	70 e0       	ldi	r23, 0x00	; 0
     2f2:	80 91 02 01 	lds	r24, 0x0102	; 0x800102 <sol>
     2f6:	90 91 03 01 	lds	r25, 0x0103	; 0x800103 <sol+0x1>
     2fa:	0e 94 d1 00 	call	0x1a2	; 0x1a2 <_Z11playOneClapii>
	playOneClap(fa, clap/8);
     2fe:	6a ef       	ldi	r22, 0xFA	; 250
     300:	70 e0       	ldi	r23, 0x00	; 0
     302:	80 91 04 01 	lds	r24, 0x0104	; 0x800104 <fa>
     306:	90 91 05 01 	lds	r25, 0x0105	; 0x800105 <fa+0x1>
     30a:	0e 94 d1 00 	call	0x1a2	; 0x1a2 <_Z11playOneClapii>
	playOneClap(fa, clap/8);
     30e:	6a ef       	ldi	r22, 0xFA	; 250
     310:	70 e0       	ldi	r23, 0x00	; 0
     312:	80 91 04 01 	lds	r24, 0x0104	; 0x800104 <fa>
     316:	90 91 05 01 	lds	r25, 0x0105	; 0x800105 <fa+0x1>
     31a:	0e 94 d1 00 	call	0x1a2	; 0x1a2 <_Z11playOneClapii>
	playOneClap(fa, clap/8);
     31e:	6a ef       	ldi	r22, 0xFA	; 250
     320:	70 e0       	ldi	r23, 0x00	; 0
     322:	80 91 04 01 	lds	r24, 0x0104	; 0x800104 <fa>
     326:	90 91 05 01 	lds	r25, 0x0105	; 0x800105 <fa+0x1>
     32a:	0e 94 d1 00 	call	0x1a2	; 0x1a2 <_Z11playOneClapii>
	playOneClap(fa, clap/8);
     32e:	6a ef       	ldi	r22, 0xFA	; 250
     330:	70 e0       	ldi	r23, 0x00	; 0
     332:	80 91 04 01 	lds	r24, 0x0104	; 0x800104 <fa>
     336:	90 91 05 01 	lds	r25, 0x0105	; 0x800105 <fa+0x1>
     33a:	0e 94 d1 00 	call	0x1a2	; 0x1a2 <_Z11playOneClapii>
	playOneClap(mi, clap/8);
     33e:	6a ef       	ldi	r22, 0xFA	; 250
     340:	70 e0       	ldi	r23, 0x00	; 0
     342:	80 91 06 01 	lds	r24, 0x0106	; 0x800106 <mi>
     346:	90 91 07 01 	lds	r25, 0x0107	; 0x800107 <mi+0x1>
     34a:	0e 94 d1 00 	call	0x1a2	; 0x1a2 <_Z11playOneClapii>
	playOneClap(mi, clap/8);
     34e:	6a ef       	ldi	r22, 0xFA	; 250
     350:	70 e0       	ldi	r23, 0x00	; 0
     352:	80 91 06 01 	lds	r24, 0x0106	; 0x800106 <mi>
     356:	90 91 07 01 	lds	r25, 0x0107	; 0x800107 <mi+0x1>
     35a:	0e 94 d1 00 	call	0x1a2	; 0x1a2 <_Z11playOneClapii>
	playOneClap(mi, clap/8);
     35e:	6a ef       	ldi	r22, 0xFA	; 250
     360:	70 e0       	ldi	r23, 0x00	; 0
     362:	80 91 06 01 	lds	r24, 0x0106	; 0x800106 <mi>
     366:	90 91 07 01 	lds	r25, 0x0107	; 0x800107 <mi+0x1>
     36a:	0e 94 d1 00 	call	0x1a2	; 0x1a2 <_Z11playOneClapii>
	playOneClap(mi, clap/8);
     36e:	6a ef       	ldi	r22, 0xFA	; 250
     370:	70 e0       	ldi	r23, 0x00	; 0
     372:	80 91 06 01 	lds	r24, 0x0106	; 0x800106 <mi>
     376:	90 91 07 01 	lds	r25, 0x0107	; 0x800107 <mi+0x1>
     37a:	0e 94 d1 00 	call	0x1a2	; 0x1a2 <_Z11playOneClapii>
	playOneClap(mi, clap/4);
     37e:	64 ef       	ldi	r22, 0xF4	; 244
     380:	71 e0       	ldi	r23, 0x01	; 1
     382:	80 91 06 01 	lds	r24, 0x0106	; 0x800106 <mi>
     386:	90 91 07 01 	lds	r25, 0x0107	; 0x800107 <mi+0x1>
     38a:	0e 94 d1 00 	call	0x1a2	; 0x1a2 <_Z11playOneClapii>
	noTone(pinPSV);
     38e:	8c e0       	ldi	r24, 0x0C	; 12
     390:	0e 94 17 0a 	call	0x142e	; 0x142e <_Z6noToneh>
	delay(clap/4);	
     394:	64 ef       	ldi	r22, 0xF4	; 244
     396:	71 e0       	ldi	r23, 0x01	; 1
     398:	80 e0       	ldi	r24, 0x00	; 0
     39a:	90 e0       	ldi	r25, 0x00	; 0
     39c:	0c 94 66 0b 	jmp	0x16cc	; 0x16cc <delay>

000003a0 <setup>:
  public:
    inline HardwareSerial(
      volatile uint8_t *ubrrh, volatile uint8_t *ubrrl,
      volatile uint8_t *ucsra, volatile uint8_t *ucsrb,
      volatile uint8_t *ucsrc, volatile uint8_t *udr);
    void begin(unsigned long baud) { begin(baud, SERIAL_8N1); }
     3a0:	26 e0       	ldi	r18, 0x06	; 6
     3a2:	40 e8       	ldi	r20, 0x80	; 128
     3a4:	55 e2       	ldi	r21, 0x25	; 37
     3a6:	60 e0       	ldi	r22, 0x00	; 0
     3a8:	70 e0       	ldi	r23, 0x00	; 0
     3aa:	80 ec       	ldi	r24, 0xC0	; 192
     3ac:	91 e0       	ldi	r25, 0x01	; 1
     3ae:	0e 94 1c 06 	call	0xc38	; 0xc38 <_ZN14HardwareSerial5beginEmh>

void setup(){
	Serial.begin(9600);
	
	//Setup for stepping motor
	myStepper.setSpeed(landingRPM);
     3b2:	4a e0       	ldi	r20, 0x0A	; 10
     3b4:	50 e0       	ldi	r21, 0x00	; 0
     3b6:	60 e0       	ldi	r22, 0x00	; 0
     3b8:	70 e0       	ldi	r23, 0x00	; 0
     3ba:	88 e3       	ldi	r24, 0x38	; 56
     3bc:	91 e0       	ldi	r25, 0x01	; 1
     3be:	0e 94 b2 03 	call	0x764	; 0x764 <_ZN7Stepper8setSpeedEl>
	
	//Interrupt declaration
	attachInterrupt(1,landing,RISING);
     3c2:	43 e0       	ldi	r20, 0x03	; 3
     3c4:	50 e0       	ldi	r21, 0x00	; 0
     3c6:	63 e9       	ldi	r22, 0x93	; 147
     3c8:	70 e0       	ldi	r23, 0x00	; 0
     3ca:	81 e0       	ldi	r24, 0x01	; 1
     3cc:	0e 94 89 0a 	call	0x1512	; 0x1512 <attachInterrupt>
	attachInterrupt(0,emergency,RISING);
     3d0:	43 e0       	ldi	r20, 0x03	; 3
     3d2:	50 e0       	ldi	r21, 0x00	; 0
     3d4:	6a e9       	ldi	r22, 0x9A	; 154
     3d6:	70 e0       	ldi	r23, 0x00	; 0
     3d8:	80 e0       	ldi	r24, 0x00	; 0
     3da:	0e 94 89 0a 	call	0x1512	; 0x1512 <attachInterrupt>
	
	//Setup for passive buzzer
	pinMode(pinPSV, OUTPUT);
     3de:	61 e0       	ldi	r22, 0x01	; 1
     3e0:	8c e0       	ldi	r24, 0x0C	; 12
     3e2:	0c 94 70 0c 	jmp	0x18e0	; 0x18e0 <pinMode>

000003e6 <loop>:
}

void loop(){
	//1. Set led green
	setGREEN();
     3e6:	0e 94 b1 00 	call	0x162	; 0x162 <_Z8setGREENv>
	//2. Check the state every 0.5 seconds
	/*2-a. When landing flag is HIGH, 
			go over landing function*/
	if(landingFlag == HIGH){
     3ea:	80 91 54 01 	lds	r24, 0x0154	; 0x800154 <landingFlag>
     3ee:	90 91 55 01 	lds	r25, 0x0155	; 0x800155 <landingFlag+0x1>
     3f2:	01 97       	sbiw	r24, 0x01	; 1
     3f4:	31 f4       	brne	.+12     	; 0x402 <__LOCK_REGION_LENGTH__+0x2>
		landingFlag = LOW;
     3f6:	10 92 55 01 	sts	0x0155, r1	; 0x800155 <landingFlag+0x1>
     3fa:	10 92 54 01 	sts	0x0154, r1	; 0x800154 <landingFlag>
		landObject();
     3fe:	0e 94 c1 00 	call	0x182	; 0x182 <_Z10landObjectv>
	}
	/*2-b. When emergency flag is HIGH, 
			go over emergency function*/
	if(emergencyFlag == HIGH){
     402:	80 91 52 01 	lds	r24, 0x0152	; 0x800152 <emergencyFlag>
     406:	90 91 53 01 	lds	r25, 0x0153	; 0x800153 <emergencyFlag+0x1>
     40a:	01 97       	sbiw	r24, 0x01	; 1
     40c:	e1 f4       	brne	.+56     	; 0x446 <__LOCK_REGION_LENGTH__+0x46>
		emergencyFlag = LOW;
     40e:	10 92 53 01 	sts	0x0153, r1	; 0x800153 <emergencyFlag+0x1>
     412:	10 92 52 01 	sts	0x0152, r1	; 0x800152 <emergencyFlag>
		setRED();
     416:	0e 94 a1 00 	call	0x142	; 0x142 <_Z6setREDv>
		delay(500);
     41a:	64 ef       	ldi	r22, 0xF4	; 244
     41c:	71 e0       	ldi	r23, 0x01	; 1
     41e:	80 e0       	ldi	r24, 0x00	; 0
     420:	90 e0       	ldi	r25, 0x00	; 0
     422:	0e 94 66 0b 	call	0x16cc	; 0x16cc <delay>
		playMusic();
     426:	0e 94 ec 00 	call	0x1d8	; 0x1d8 <_Z9playMusicv>
		delay(500);
     42a:	64 ef       	ldi	r22, 0xF4	; 244
     42c:	71 e0       	ldi	r23, 0x01	; 1
     42e:	80 e0       	ldi	r24, 0x00	; 0
     430:	90 e0       	ldi	r25, 0x00	; 0
     432:	0e 94 66 0b 	call	0x16cc	; 0x16cc <delay>
		setGREEN();
     436:	0e 94 b1 00 	call	0x162	; 0x162 <_Z8setGREENv>
		delay(500);
     43a:	64 ef       	ldi	r22, 0xF4	; 244
     43c:	71 e0       	ldi	r23, 0x01	; 1
     43e:	80 e0       	ldi	r24, 0x00	; 0
     440:	90 e0       	ldi	r25, 0x00	; 0
     442:	0e 94 66 0b 	call	0x16cc	; 0x16cc <delay>
	}
	delay(500);
     446:	64 ef       	ldi	r22, 0xF4	; 244
     448:	71 e0       	ldi	r23, 0x01	; 1
     44a:	80 e0       	ldi	r24, 0x00	; 0
     44c:	90 e0       	ldi	r25, 0x00	; 0
     44e:	0c 94 66 0b 	jmp	0x16cc	; 0x16cc <delay>

00000452 <_GLOBAL__sub_I_dou>:
     452:	ef 92       	push	r14
     454:	ff 92       	push	r15
     456:	0f 93       	push	r16
     458:	1f 93       	push	r17
int landingFlag = LOW;
int emergencyFlag = LOW;


//Object declaration
Stepper myStepper(STEPPERREV, pinIn1, pinIn3, pinIn2, pinIn4);
     45a:	8b e0       	ldi	r24, 0x0B	; 11
     45c:	e8 2e       	mov	r14, r24
     45e:	f1 2c       	mov	r15, r1
     460:	09 e0       	ldi	r16, 0x09	; 9
     462:	10 e0       	ldi	r17, 0x00	; 0
     464:	2a e0       	ldi	r18, 0x0A	; 10
     466:	30 e0       	ldi	r19, 0x00	; 0
     468:	48 e0       	ldi	r20, 0x08	; 8
     46a:	50 e0       	ldi	r21, 0x00	; 0
     46c:	60 e0       	ldi	r22, 0x00	; 0
     46e:	78 e0       	ldi	r23, 0x08	; 8
     470:	88 e3       	ldi	r24, 0x38	; 56
     472:	91 e0       	ldi	r25, 0x01	; 1
     474:	0e 94 7c 03 	call	0x6f8	; 0x6f8 <_ZN7StepperC1Eiiiii>
		delay(500);
		setGREEN();
		delay(500);
	}
	delay(500);
     478:	1f 91       	pop	r17
     47a:	0f 91       	pop	r16
     47c:	ff 90       	pop	r15
     47e:	ef 90       	pop	r14
     480:	08 95       	ret

00000482 <__vector_11>:
     482:	1f 92       	push	r1
     484:	0f 92       	push	r0
     486:	0f b6       	in	r0, 0x3f	; 63
     488:	0f 92       	push	r0
     48a:	11 24       	eor	r1, r1
     48c:	2f 93       	push	r18
     48e:	3f 93       	push	r19
     490:	4f 93       	push	r20
     492:	5f 93       	push	r21
     494:	6f 93       	push	r22
     496:	7f 93       	push	r23
     498:	8f 93       	push	r24
     49a:	9f 93       	push	r25
     49c:	af 93       	push	r26
     49e:	bf 93       	push	r27
     4a0:	ef 93       	push	r30
     4a2:	ff 93       	push	r31
     4a4:	80 91 57 01 	lds	r24, 0x0157	; 0x800157 <_ZL7Channel>
     4a8:	87 ff       	sbrs	r24, 7
     4aa:	05 c0       	rjmp	.+10     	; 0x4b6 <__vector_11+0x34>
     4ac:	10 92 85 00 	sts	0x0085, r1	; 0x800085 <__DATA_REGION_ORIGIN__+0x25>
     4b0:	10 92 84 00 	sts	0x0084, r1	; 0x800084 <__DATA_REGION_ORIGIN__+0x24>
     4b4:	1b c0       	rjmp	.+54     	; 0x4ec <__vector_11+0x6a>
     4b6:	20 91 57 01 	lds	r18, 0x0157	; 0x800157 <_ZL7Channel>
     4ba:	02 2e       	mov	r0, r18
     4bc:	00 0c       	add	r0, r0
     4be:	33 0b       	sbc	r19, r19
     4c0:	80 91 56 01 	lds	r24, 0x0156	; 0x800156 <ServoCount>
     4c4:	90 e0       	ldi	r25, 0x00	; 0
     4c6:	28 17       	cp	r18, r24
     4c8:	39 07       	cpc	r19, r25
     4ca:	84 f4       	brge	.+32     	; 0x4ec <__vector_11+0x6a>
     4cc:	80 91 57 01 	lds	r24, 0x0157	; 0x800157 <_ZL7Channel>
     4d0:	08 2e       	mov	r0, r24
     4d2:	00 0c       	add	r0, r0
     4d4:	99 0b       	sbc	r25, r25
     4d6:	fc 01       	movw	r30, r24
     4d8:	ee 0f       	add	r30, r30
     4da:	ff 1f       	adc	r31, r31
     4dc:	8e 0f       	add	r24, r30
     4de:	9f 1f       	adc	r25, r31
     4e0:	fc 01       	movw	r30, r24
     4e2:	e8 5a       	subi	r30, 0xA8	; 168
     4e4:	fe 4f       	sbci	r31, 0xFE	; 254
     4e6:	80 81       	ld	r24, Z
     4e8:	86 fd       	sbrc	r24, 6
     4ea:	15 c0       	rjmp	.+42     	; 0x516 <__vector_11+0x94>
     4ec:	80 91 57 01 	lds	r24, 0x0157	; 0x800157 <_ZL7Channel>
     4f0:	8f 5f       	subi	r24, 0xFF	; 255
     4f2:	80 93 57 01 	sts	0x0157, r24	; 0x800157 <_ZL7Channel>
     4f6:	20 91 57 01 	lds	r18, 0x0157	; 0x800157 <_ZL7Channel>
     4fa:	02 2e       	mov	r0, r18
     4fc:	00 0c       	add	r0, r0
     4fe:	33 0b       	sbc	r19, r19
     500:	80 91 56 01 	lds	r24, 0x0156	; 0x800156 <ServoCount>
     504:	90 e0       	ldi	r25, 0x00	; 0
     506:	28 17       	cp	r18, r24
     508:	39 07       	cpc	r19, r25
     50a:	c4 f4       	brge	.+48     	; 0x53c <__vector_11+0xba>
     50c:	80 91 57 01 	lds	r24, 0x0157	; 0x800157 <_ZL7Channel>
     510:	8c 30       	cpi	r24, 0x0C	; 12
     512:	64 f1       	brlt	.+88     	; 0x56c <__vector_11+0xea>
     514:	13 c0       	rjmp	.+38     	; 0x53c <__vector_11+0xba>
     516:	80 91 57 01 	lds	r24, 0x0157	; 0x800157 <_ZL7Channel>
     51a:	08 2e       	mov	r0, r24
     51c:	00 0c       	add	r0, r0
     51e:	99 0b       	sbc	r25, r25
     520:	fc 01       	movw	r30, r24
     522:	ee 0f       	add	r30, r30
     524:	ff 1f       	adc	r31, r31
     526:	8e 0f       	add	r24, r30
     528:	9f 1f       	adc	r25, r31
     52a:	fc 01       	movw	r30, r24
     52c:	e8 5a       	subi	r30, 0xA8	; 168
     52e:	fe 4f       	sbci	r31, 0xFE	; 254
     530:	80 81       	ld	r24, Z
     532:	60 e0       	ldi	r22, 0x00	; 0
     534:	8f 73       	andi	r24, 0x3F	; 63
     536:	0e 94 ac 0c 	call	0x1958	; 0x1958 <digitalWrite>
     53a:	d8 cf       	rjmp	.-80     	; 0x4ec <__vector_11+0x6a>
     53c:	80 91 84 00 	lds	r24, 0x0084	; 0x800084 <__DATA_REGION_ORIGIN__+0x24>
     540:	90 91 85 00 	lds	r25, 0x0085	; 0x800085 <__DATA_REGION_ORIGIN__+0x25>
     544:	04 96       	adiw	r24, 0x04	; 4
     546:	80 34       	cpi	r24, 0x40	; 64
     548:	9c 49       	sbci	r25, 0x9C	; 156
     54a:	18 f4       	brcc	.+6      	; 0x552 <__vector_11+0xd0>
     54c:	80 e4       	ldi	r24, 0x40	; 64
     54e:	9c e9       	ldi	r25, 0x9C	; 156
     550:	05 c0       	rjmp	.+10     	; 0x55c <__vector_11+0xda>
     552:	80 91 84 00 	lds	r24, 0x0084	; 0x800084 <__DATA_REGION_ORIGIN__+0x24>
     556:	90 91 85 00 	lds	r25, 0x0085	; 0x800085 <__DATA_REGION_ORIGIN__+0x25>
     55a:	04 96       	adiw	r24, 0x04	; 4
     55c:	90 93 89 00 	sts	0x0089, r25	; 0x800089 <__DATA_REGION_ORIGIN__+0x29>
     560:	80 93 88 00 	sts	0x0088, r24	; 0x800088 <__DATA_REGION_ORIGIN__+0x28>
     564:	8f ef       	ldi	r24, 0xFF	; 255
     566:	80 93 57 01 	sts	0x0157, r24	; 0x800157 <_ZL7Channel>
     56a:	3b c0       	rjmp	.+118    	; 0x5e2 <__vector_11+0x160>
     56c:	20 91 84 00 	lds	r18, 0x0084	; 0x800084 <__DATA_REGION_ORIGIN__+0x24>
     570:	30 91 85 00 	lds	r19, 0x0085	; 0x800085 <__DATA_REGION_ORIGIN__+0x25>
     574:	80 91 57 01 	lds	r24, 0x0157	; 0x800157 <_ZL7Channel>
     578:	08 2e       	mov	r0, r24
     57a:	00 0c       	add	r0, r0
     57c:	99 0b       	sbc	r25, r25
     57e:	fc 01       	movw	r30, r24
     580:	ee 0f       	add	r30, r30
     582:	ff 1f       	adc	r31, r31
     584:	8e 0f       	add	r24, r30
     586:	9f 1f       	adc	r25, r31
     588:	fc 01       	movw	r30, r24
     58a:	e8 5a       	subi	r30, 0xA8	; 168
     58c:	fe 4f       	sbci	r31, 0xFE	; 254
     58e:	81 81       	ldd	r24, Z+1	; 0x01
     590:	92 81       	ldd	r25, Z+2	; 0x02
     592:	82 0f       	add	r24, r18
     594:	93 1f       	adc	r25, r19
     596:	90 93 89 00 	sts	0x0089, r25	; 0x800089 <__DATA_REGION_ORIGIN__+0x29>
     59a:	80 93 88 00 	sts	0x0088, r24	; 0x800088 <__DATA_REGION_ORIGIN__+0x28>
     59e:	80 91 57 01 	lds	r24, 0x0157	; 0x800157 <_ZL7Channel>
     5a2:	08 2e       	mov	r0, r24
     5a4:	00 0c       	add	r0, r0
     5a6:	99 0b       	sbc	r25, r25
     5a8:	fc 01       	movw	r30, r24
     5aa:	ee 0f       	add	r30, r30
     5ac:	ff 1f       	adc	r31, r31
     5ae:	8e 0f       	add	r24, r30
     5b0:	9f 1f       	adc	r25, r31
     5b2:	fc 01       	movw	r30, r24
     5b4:	e8 5a       	subi	r30, 0xA8	; 168
     5b6:	fe 4f       	sbci	r31, 0xFE	; 254
     5b8:	80 81       	ld	r24, Z
     5ba:	86 ff       	sbrs	r24, 6
     5bc:	12 c0       	rjmp	.+36     	; 0x5e2 <__vector_11+0x160>
     5be:	80 91 57 01 	lds	r24, 0x0157	; 0x800157 <_ZL7Channel>
     5c2:	08 2e       	mov	r0, r24
     5c4:	00 0c       	add	r0, r0
     5c6:	99 0b       	sbc	r25, r25
     5c8:	fc 01       	movw	r30, r24
     5ca:	ee 0f       	add	r30, r30
     5cc:	ff 1f       	adc	r31, r31
     5ce:	8e 0f       	add	r24, r30
     5d0:	9f 1f       	adc	r25, r31
     5d2:	fc 01       	movw	r30, r24
     5d4:	e8 5a       	subi	r30, 0xA8	; 168
     5d6:	fe 4f       	sbci	r31, 0xFE	; 254
     5d8:	80 81       	ld	r24, Z
     5da:	61 e0       	ldi	r22, 0x01	; 1
     5dc:	8f 73       	andi	r24, 0x3F	; 63
     5de:	0e 94 ac 0c 	call	0x1958	; 0x1958 <digitalWrite>
     5e2:	ff 91       	pop	r31
     5e4:	ef 91       	pop	r30
     5e6:	bf 91       	pop	r27
     5e8:	af 91       	pop	r26
     5ea:	9f 91       	pop	r25
     5ec:	8f 91       	pop	r24
     5ee:	7f 91       	pop	r23
     5f0:	6f 91       	pop	r22
     5f2:	5f 91       	pop	r21
     5f4:	4f 91       	pop	r20
     5f6:	3f 91       	pop	r19
     5f8:	2f 91       	pop	r18
     5fa:	0f 90       	pop	r0
     5fc:	0f be       	out	0x3f, r0	; 63
     5fe:	0f 90       	pop	r0
     600:	1f 90       	pop	r1
     602:	18 95       	reti

00000604 <__vector_3>:
     604:	1f 92       	push	r1
     606:	0f 92       	push	r0
     608:	0f b6       	in	r0, 0x3f	; 63
     60a:	0f 92       	push	r0
     60c:	11 24       	eor	r1, r1
     60e:	2f 93       	push	r18
     610:	3f 93       	push	r19
     612:	4f 93       	push	r20
     614:	5f 93       	push	r21
     616:	6f 93       	push	r22
     618:	7f 93       	push	r23
     61a:	8f 93       	push	r24
     61c:	9f 93       	push	r25
     61e:	af 93       	push	r26
     620:	bf 93       	push	r27
     622:	ef 93       	push	r30
     624:	ff 93       	push	r31
     626:	e0 91 be 01 	lds	r30, 0x01BE	; 0x8001be <_ZN14SoftwareSerial13active_objectE>
     62a:	f0 91 bf 01 	lds	r31, 0x01BF	; 0x8001bf <_ZN14SoftwareSerial13active_objectE+0x1>
     62e:	30 97       	sbiw	r30, 0x00	; 0
     630:	09 f4       	brne	.+2      	; 0x634 <__vector_3+0x30>
     632:	51 c0       	rjmp	.+162    	; 0x6d6 <__vector_3+0xd2>
     634:	96 8d       	ldd	r25, Z+30	; 0x1e
     636:	a6 85       	ldd	r26, Z+14	; 0x0e
     638:	b7 85       	ldd	r27, Z+15	; 0x0f
     63a:	85 85       	ldd	r24, Z+13	; 0x0d
     63c:	91 ff       	sbrs	r25, 1
     63e:	04 c0       	rjmp	.+8      	; 0x648 <__vector_3+0x44>
     640:	9c 91       	ld	r25, X
     642:	89 23       	and	r24, r25
     644:	29 f4       	brne	.+10     	; 0x650 <__vector_3+0x4c>
     646:	47 c0       	rjmp	.+142    	; 0x6d6 <__vector_3+0xd2>
     648:	9c 91       	ld	r25, X
     64a:	89 23       	and	r24, r25
     64c:	09 f0       	breq	.+2      	; 0x650 <__vector_3+0x4c>
     64e:	43 c0       	rjmp	.+134    	; 0x6d6 <__vector_3+0xd2>
     650:	a3 89       	ldd	r26, Z+19	; 0x13
     652:	b4 89       	ldd	r27, Z+20	; 0x14
     654:	9c 91       	ld	r25, X
     656:	85 89       	ldd	r24, Z+21	; 0x15
     658:	80 95       	com	r24
     65a:	89 23       	and	r24, r25
     65c:	8c 93       	st	X, r24
	__asm__ volatile (
		"1: sbiw %0,1" "\n\t"
		"brne 1b"
		: "=w" (__count)
		: "0" (__count)
	);
     65e:	86 89       	ldd	r24, Z+22	; 0x16
     660:	97 89       	ldd	r25, Z+23	; 0x17
     662:	01 97       	sbiw	r24, 0x01	; 1
     664:	f1 f7       	brne	.-4      	; 0x662 <__vector_3+0x5e>
     666:	60 8d       	ldd	r22, Z+24	; 0x18
     668:	71 8d       	ldd	r23, Z+25	; 0x19
     66a:	a6 85       	ldd	r26, Z+14	; 0x0e
     66c:	b7 85       	ldd	r27, Z+15	; 0x0f
     66e:	55 85       	ldd	r21, Z+13	; 0x0d
     670:	38 e0       	ldi	r19, 0x08	; 8
     672:	20 e0       	ldi	r18, 0x00	; 0
     674:	cb 01       	movw	r24, r22
     676:	01 97       	sbiw	r24, 0x01	; 1
     678:	f1 f7       	brne	.-4      	; 0x676 <__vector_3+0x72>
     67a:	82 2f       	mov	r24, r18
     67c:	90 e0       	ldi	r25, 0x00	; 0
     67e:	95 95       	asr	r25
     680:	87 95       	ror	r24
     682:	28 2f       	mov	r18, r24
     684:	4c 91       	ld	r20, X
     686:	45 23       	and	r20, r21
     688:	09 f0       	breq	.+2      	; 0x68c <__vector_3+0x88>
     68a:	20 68       	ori	r18, 0x80	; 128
     68c:	31 50       	subi	r19, 0x01	; 1
     68e:	91 f7       	brne	.-28     	; 0x674 <__vector_3+0x70>
     690:	86 8d       	ldd	r24, Z+30	; 0x1e
     692:	81 fd       	sbrc	r24, 1
     694:	20 95       	com	r18
     696:	80 91 7d 01 	lds	r24, 0x017D	; 0x80017d <_ZN14SoftwareSerial20_receive_buffer_tailE>
     69a:	90 e0       	ldi	r25, 0x00	; 0
     69c:	01 96       	adiw	r24, 0x01	; 1
     69e:	8f 73       	andi	r24, 0x3F	; 63
     6a0:	99 27       	eor	r25, r25
     6a2:	30 91 7c 01 	lds	r19, 0x017C	; 0x80017c <_ZN14SoftwareSerial20_receive_buffer_headE>
     6a6:	38 17       	cp	r19, r24
     6a8:	49 f0       	breq	.+18     	; 0x6bc <__vector_3+0xb8>
     6aa:	a0 91 7d 01 	lds	r26, 0x017D	; 0x80017d <_ZN14SoftwareSerial20_receive_buffer_tailE>
     6ae:	b0 e0       	ldi	r27, 0x00	; 0
     6b0:	a2 58       	subi	r26, 0x82	; 130
     6b2:	be 4f       	sbci	r27, 0xFE	; 254
     6b4:	2c 93       	st	X, r18
     6b6:	80 93 7d 01 	sts	0x017D, r24	; 0x80017d <_ZN14SoftwareSerial20_receive_buffer_tailE>
     6ba:	03 c0       	rjmp	.+6      	; 0x6c2 <__vector_3+0xbe>
     6bc:	86 8d       	ldd	r24, Z+30	; 0x1e
     6be:	81 60       	ori	r24, 0x01	; 1
     6c0:	86 8f       	std	Z+30, r24	; 0x1e
     6c2:	82 8d       	ldd	r24, Z+26	; 0x1a
     6c4:	93 8d       	ldd	r25, Z+27	; 0x1b
     6c6:	01 97       	sbiw	r24, 0x01	; 1
     6c8:	f1 f7       	brne	.-4      	; 0x6c6 <__vector_3+0xc2>
     6ca:	a3 89       	ldd	r26, Z+19	; 0x13
     6cc:	b4 89       	ldd	r27, Z+20	; 0x14
     6ce:	9c 91       	ld	r25, X
     6d0:	85 89       	ldd	r24, Z+21	; 0x15
     6d2:	89 2b       	or	r24, r25
     6d4:	8c 93       	st	X, r24
     6d6:	ff 91       	pop	r31
     6d8:	ef 91       	pop	r30
     6da:	bf 91       	pop	r27
     6dc:	af 91       	pop	r26
     6de:	9f 91       	pop	r25
     6e0:	8f 91       	pop	r24
     6e2:	7f 91       	pop	r23
     6e4:	6f 91       	pop	r22
     6e6:	5f 91       	pop	r21
     6e8:	4f 91       	pop	r20
     6ea:	3f 91       	pop	r19
     6ec:	2f 91       	pop	r18
     6ee:	0f 90       	pop	r0
     6f0:	0f be       	out	0x3f, r0	; 63
     6f2:	0f 90       	pop	r0
     6f4:	1f 90       	pop	r1
     6f6:	18 95       	reti

000006f8 <_ZN7StepperC1Eiiiii>:
     6f8:	ef 92       	push	r14
     6fa:	ff 92       	push	r15
     6fc:	0f 93       	push	r16
     6fe:	1f 93       	push	r17
     700:	cf 93       	push	r28
     702:	df 93       	push	r29
     704:	ec 01       	movw	r28, r24
     706:	84 2f       	mov	r24, r20
     708:	1b 86       	std	Y+11, r1	; 0x0b
     70a:	1a 86       	std	Y+10, r1	; 0x0a
     70c:	19 82       	std	Y+1, r1	; 0x01
     70e:	18 82       	st	Y, r1
     710:	1e 8a       	std	Y+22, r1	; 0x16
     712:	1f 8a       	std	Y+23, r1	; 0x17
     714:	18 8e       	std	Y+24, r1	; 0x18
     716:	19 8e       	std	Y+25, r1	; 0x19
     718:	7f 83       	std	Y+7, r23	; 0x07
     71a:	6e 83       	std	Y+6, r22	; 0x06
     71c:	4c 87       	std	Y+12, r20	; 0x0c
     71e:	5d 87       	std	Y+13, r21	; 0x0d
     720:	3f 87       	std	Y+15, r19	; 0x0f
     722:	2e 87       	std	Y+14, r18	; 0x0e
     724:	19 8b       	std	Y+17, r17	; 0x11
     726:	08 8b       	std	Y+16, r16	; 0x10
     728:	fb 8a       	std	Y+19, r15	; 0x13
     72a:	ea 8a       	std	Y+18, r14	; 0x12
     72c:	61 e0       	ldi	r22, 0x01	; 1
     72e:	0e 94 70 0c 	call	0x18e0	; 0x18e0 <pinMode>
     732:	61 e0       	ldi	r22, 0x01	; 1
     734:	8e 85       	ldd	r24, Y+14	; 0x0e
     736:	0e 94 70 0c 	call	0x18e0	; 0x18e0 <pinMode>
     73a:	61 e0       	ldi	r22, 0x01	; 1
     73c:	88 89       	ldd	r24, Y+16	; 0x10
     73e:	0e 94 70 0c 	call	0x18e0	; 0x18e0 <pinMode>
     742:	61 e0       	ldi	r22, 0x01	; 1
     744:	8a 89       	ldd	r24, Y+18	; 0x12
     746:	0e 94 70 0c 	call	0x18e0	; 0x18e0 <pinMode>
     74a:	1d 8a       	std	Y+21, r1	; 0x15
     74c:	1c 8a       	std	Y+20, r1	; 0x14
     74e:	84 e0       	ldi	r24, 0x04	; 4
     750:	90 e0       	ldi	r25, 0x00	; 0
     752:	99 87       	std	Y+9, r25	; 0x09
     754:	88 87       	std	Y+8, r24	; 0x08
     756:	df 91       	pop	r29
     758:	cf 91       	pop	r28
     75a:	1f 91       	pop	r17
     75c:	0f 91       	pop	r16
     75e:	ff 90       	pop	r15
     760:	ef 90       	pop	r14
     762:	08 95       	ret

00000764 <_ZN7Stepper8setSpeedEl>:
     764:	cf 92       	push	r12
     766:	df 92       	push	r13
     768:	ef 92       	push	r14
     76a:	ff 92       	push	r15
     76c:	cf 93       	push	r28
     76e:	df 93       	push	r29
     770:	ec 01       	movw	r28, r24
     772:	6a 01       	movw	r12, r20
     774:	7b 01       	movw	r14, r22
     776:	2e 81       	ldd	r18, Y+6	; 0x06
     778:	3f 81       	ldd	r19, Y+7	; 0x07
     77a:	03 2e       	mov	r0, r19
     77c:	00 0c       	add	r0, r0
     77e:	44 0b       	sbc	r20, r20
     780:	55 0b       	sbc	r21, r21
     782:	60 e0       	ldi	r22, 0x00	; 0
     784:	77 e8       	ldi	r23, 0x87	; 135
     786:	83 e9       	ldi	r24, 0x93	; 147
     788:	93 e0       	ldi	r25, 0x03	; 3
     78a:	0e 94 12 0d 	call	0x1a24	; 0x1a24 <__divmodsi4>
     78e:	ca 01       	movw	r24, r20
     790:	b9 01       	movw	r22, r18
     792:	a7 01       	movw	r20, r14
     794:	96 01       	movw	r18, r12
     796:	0e 94 12 0d 	call	0x1a24	; 0x1a24 <__divmodsi4>
     79a:	2a 83       	std	Y+2, r18	; 0x02
     79c:	3b 83       	std	Y+3, r19	; 0x03
     79e:	4c 83       	std	Y+4, r20	; 0x04
     7a0:	5d 83       	std	Y+5, r21	; 0x05
     7a2:	df 91       	pop	r29
     7a4:	cf 91       	pop	r28
     7a6:	ff 90       	pop	r15
     7a8:	ef 90       	pop	r14
     7aa:	df 90       	pop	r13
     7ac:	cf 90       	pop	r12
     7ae:	08 95       	ret

000007b0 <_ZN7Stepper9stepMotorEi>:
     7b0:	0f 93       	push	r16
     7b2:	1f 93       	push	r17
     7b4:	cf 93       	push	r28
     7b6:	df 93       	push	r29
     7b8:	ec 01       	movw	r28, r24
     7ba:	8b 01       	movw	r16, r22
     7bc:	88 85       	ldd	r24, Y+8	; 0x08
     7be:	99 85       	ldd	r25, Y+9	; 0x09
     7c0:	02 97       	sbiw	r24, 0x02	; 2
     7c2:	f1 f4       	brne	.+60     	; 0x800 <_ZN7Stepper9stepMotorEi+0x50>
     7c4:	61 30       	cpi	r22, 0x01	; 1
     7c6:	71 05       	cpc	r23, r1
     7c8:	69 f0       	breq	.+26     	; 0x7e4 <_ZN7Stepper9stepMotorEi+0x34>
     7ca:	24 f4       	brge	.+8      	; 0x7d4 <_ZN7Stepper9stepMotorEi+0x24>
     7cc:	67 2b       	or	r22, r23
     7ce:	c1 f4       	brne	.+48     	; 0x800 <_ZN7Stepper9stepMotorEi+0x50>
     7d0:	60 e0       	ldi	r22, 0x00	; 0
     7d2:	09 c0       	rjmp	.+18     	; 0x7e6 <_ZN7Stepper9stepMotorEi+0x36>
     7d4:	62 30       	cpi	r22, 0x02	; 2
     7d6:	71 05       	cpc	r23, r1
     7d8:	59 f0       	breq	.+22     	; 0x7f0 <_ZN7Stepper9stepMotorEi+0x40>
     7da:	63 30       	cpi	r22, 0x03	; 3
     7dc:	71 05       	cpc	r23, r1
     7de:	81 f4       	brne	.+32     	; 0x800 <_ZN7Stepper9stepMotorEi+0x50>
     7e0:	60 e0       	ldi	r22, 0x00	; 0
     7e2:	07 c0       	rjmp	.+14     	; 0x7f2 <_ZN7Stepper9stepMotorEi+0x42>
     7e4:	61 e0       	ldi	r22, 0x01	; 1
     7e6:	8c 85       	ldd	r24, Y+12	; 0x0c
     7e8:	0e 94 ac 0c 	call	0x1958	; 0x1958 <digitalWrite>
     7ec:	61 e0       	ldi	r22, 0x01	; 1
     7ee:	05 c0       	rjmp	.+10     	; 0x7fa <_ZN7Stepper9stepMotorEi+0x4a>
     7f0:	61 e0       	ldi	r22, 0x01	; 1
     7f2:	8c 85       	ldd	r24, Y+12	; 0x0c
     7f4:	0e 94 ac 0c 	call	0x1958	; 0x1958 <digitalWrite>
     7f8:	60 e0       	ldi	r22, 0x00	; 0
     7fa:	8e 85       	ldd	r24, Y+14	; 0x0e
     7fc:	0e 94 ac 0c 	call	0x1958	; 0x1958 <digitalWrite>
     800:	88 85       	ldd	r24, Y+8	; 0x08
     802:	99 85       	ldd	r25, Y+9	; 0x09
     804:	04 97       	sbiw	r24, 0x04	; 4
     806:	b9 f5       	brne	.+110    	; 0x876 <_ZN7Stepper9stepMotorEi+0xc6>
     808:	01 30       	cpi	r16, 0x01	; 1
     80a:	11 05       	cpc	r17, r1
     80c:	b1 f0       	breq	.+44     	; 0x83a <_ZN7Stepper9stepMotorEi+0x8a>
     80e:	4c f4       	brge	.+18     	; 0x822 <_ZN7Stepper9stepMotorEi+0x72>
     810:	01 15       	cp	r16, r1
     812:	11 05       	cpc	r17, r1
     814:	81 f5       	brne	.+96     	; 0x876 <_ZN7Stepper9stepMotorEi+0xc6>
     816:	61 e0       	ldi	r22, 0x01	; 1
     818:	8c 85       	ldd	r24, Y+12	; 0x0c
     81a:	0e 94 ac 0c 	call	0x1958	; 0x1958 <digitalWrite>
     81e:	60 e0       	ldi	r22, 0x00	; 0
     820:	11 c0       	rjmp	.+34     	; 0x844 <_ZN7Stepper9stepMotorEi+0x94>
     822:	02 30       	cpi	r16, 0x02	; 2
     824:	11 05       	cpc	r17, r1
     826:	b9 f0       	breq	.+46     	; 0x856 <_ZN7Stepper9stepMotorEi+0xa6>
     828:	03 30       	cpi	r16, 0x03	; 3
     82a:	11 05       	cpc	r17, r1
     82c:	21 f5       	brne	.+72     	; 0x876 <_ZN7Stepper9stepMotorEi+0xc6>
     82e:	61 e0       	ldi	r22, 0x01	; 1
     830:	8c 85       	ldd	r24, Y+12	; 0x0c
     832:	0e 94 ac 0c 	call	0x1958	; 0x1958 <digitalWrite>
     836:	60 e0       	ldi	r22, 0x00	; 0
     838:	13 c0       	rjmp	.+38     	; 0x860 <_ZN7Stepper9stepMotorEi+0xb0>
     83a:	60 e0       	ldi	r22, 0x00	; 0
     83c:	8c 85       	ldd	r24, Y+12	; 0x0c
     83e:	0e 94 ac 0c 	call	0x1958	; 0x1958 <digitalWrite>
     842:	61 e0       	ldi	r22, 0x01	; 1
     844:	8e 85       	ldd	r24, Y+14	; 0x0e
     846:	0e 94 ac 0c 	call	0x1958	; 0x1958 <digitalWrite>
     84a:	61 e0       	ldi	r22, 0x01	; 1
     84c:	88 89       	ldd	r24, Y+16	; 0x10
     84e:	0e 94 ac 0c 	call	0x1958	; 0x1958 <digitalWrite>
     852:	60 e0       	ldi	r22, 0x00	; 0
     854:	0d c0       	rjmp	.+26     	; 0x870 <_ZN7Stepper9stepMotorEi+0xc0>
     856:	60 e0       	ldi	r22, 0x00	; 0
     858:	8c 85       	ldd	r24, Y+12	; 0x0c
     85a:	0e 94 ac 0c 	call	0x1958	; 0x1958 <digitalWrite>
     85e:	61 e0       	ldi	r22, 0x01	; 1
     860:	8e 85       	ldd	r24, Y+14	; 0x0e
     862:	0e 94 ac 0c 	call	0x1958	; 0x1958 <digitalWrite>
     866:	60 e0       	ldi	r22, 0x00	; 0
     868:	88 89       	ldd	r24, Y+16	; 0x10
     86a:	0e 94 ac 0c 	call	0x1958	; 0x1958 <digitalWrite>
     86e:	61 e0       	ldi	r22, 0x01	; 1
     870:	8a 89       	ldd	r24, Y+18	; 0x12
     872:	0e 94 ac 0c 	call	0x1958	; 0x1958 <digitalWrite>
     876:	88 85       	ldd	r24, Y+8	; 0x08
     878:	99 85       	ldd	r25, Y+9	; 0x09
     87a:	05 97       	sbiw	r24, 0x05	; 5
     87c:	09 f0       	breq	.+2      	; 0x880 <_ZN7Stepper9stepMotorEi+0xd0>
     87e:	73 c0       	rjmp	.+230    	; 0x966 <__stack+0x67>
     880:	0a 30       	cpi	r16, 0x0A	; 10
     882:	11 05       	cpc	r17, r1
     884:	08 f0       	brcs	.+2      	; 0x888 <_ZN7Stepper9stepMotorEi+0xd8>
     886:	6f c0       	rjmp	.+222    	; 0x966 <__stack+0x67>
     888:	f8 01       	movw	r30, r16
     88a:	ec 5c       	subi	r30, 0xCC	; 204
     88c:	ff 4f       	sbci	r31, 0xFF	; 255
     88e:	0c 94 31 0d 	jmp	0x1a62	; 0x1a62 <__tablejump2__>
     892:	60 e0       	ldi	r22, 0x00	; 0
     894:	8c 85       	ldd	r24, Y+12	; 0x0c
     896:	0e 94 ac 0c 	call	0x1958	; 0x1958 <digitalWrite>
     89a:	61 e0       	ldi	r22, 0x01	; 1
     89c:	51 c0       	rjmp	.+162    	; 0x940 <__stack+0x41>
     89e:	60 e0       	ldi	r22, 0x00	; 0
     8a0:	8c 85       	ldd	r24, Y+12	; 0x0c
     8a2:	0e 94 ac 0c 	call	0x1958	; 0x1958 <digitalWrite>
     8a6:	61 e0       	ldi	r22, 0x01	; 1
     8a8:	8e 85       	ldd	r24, Y+14	; 0x0e
     8aa:	0e 94 ac 0c 	call	0x1958	; 0x1958 <digitalWrite>
     8ae:	60 e0       	ldi	r22, 0x00	; 0
     8b0:	4b c0       	rjmp	.+150    	; 0x948 <__stack+0x49>
     8b2:	60 e0       	ldi	r22, 0x00	; 0
     8b4:	8c 85       	ldd	r24, Y+12	; 0x0c
     8b6:	0e 94 ac 0c 	call	0x1958	; 0x1958 <digitalWrite>
     8ba:	61 e0       	ldi	r22, 0x01	; 1
     8bc:	8e 85       	ldd	r24, Y+14	; 0x0e
     8be:	0e 94 ac 0c 	call	0x1958	; 0x1958 <digitalWrite>
     8c2:	60 e0       	ldi	r22, 0x00	; 0
     8c4:	88 89       	ldd	r24, Y+16	; 0x10
     8c6:	0e 94 ac 0c 	call	0x1958	; 0x1958 <digitalWrite>
     8ca:	61 e0       	ldi	r22, 0x01	; 1
     8cc:	41 c0       	rjmp	.+130    	; 0x950 <__stack+0x51>
     8ce:	60 e0       	ldi	r22, 0x00	; 0
     8d0:	01 c0       	rjmp	.+2      	; 0x8d4 <_ZN7Stepper9stepMotorEi+0x124>
     8d2:	61 e0       	ldi	r22, 0x01	; 1
     8d4:	8c 85       	ldd	r24, Y+12	; 0x0c
     8d6:	0e 94 ac 0c 	call	0x1958	; 0x1958 <digitalWrite>
     8da:	61 e0       	ldi	r22, 0x01	; 1
     8dc:	05 c0       	rjmp	.+10     	; 0x8e8 <_ZN7Stepper9stepMotorEi+0x138>
     8de:	61 e0       	ldi	r22, 0x01	; 1
     8e0:	8c 85       	ldd	r24, Y+12	; 0x0c
     8e2:	0e 94 ac 0c 	call	0x1958	; 0x1958 <digitalWrite>
     8e6:	60 e0       	ldi	r22, 0x00	; 0
     8e8:	8e 85       	ldd	r24, Y+14	; 0x0e
     8ea:	0e 94 ac 0c 	call	0x1958	; 0x1958 <digitalWrite>
     8ee:	60 e0       	ldi	r22, 0x00	; 0
     8f0:	09 c0       	rjmp	.+18     	; 0x904 <__stack+0x5>
     8f2:	61 e0       	ldi	r22, 0x01	; 1
     8f4:	8c 85       	ldd	r24, Y+12	; 0x0c
     8f6:	0e 94 ac 0c 	call	0x1958	; 0x1958 <digitalWrite>
     8fa:	60 e0       	ldi	r22, 0x00	; 0
     8fc:	8e 85       	ldd	r24, Y+14	; 0x0e
     8fe:	0e 94 ac 0c 	call	0x1958	; 0x1958 <digitalWrite>
     902:	61 e0       	ldi	r22, 0x01	; 1
     904:	88 89       	ldd	r24, Y+16	; 0x10
     906:	0e 94 ac 0c 	call	0x1958	; 0x1958 <digitalWrite>
     90a:	61 e0       	ldi	r22, 0x01	; 1
     90c:	0d c0       	rjmp	.+26     	; 0x928 <__stack+0x29>
     90e:	61 e0       	ldi	r22, 0x01	; 1
     910:	8c 85       	ldd	r24, Y+12	; 0x0c
     912:	0e 94 ac 0c 	call	0x1958	; 0x1958 <digitalWrite>
     916:	60 e0       	ldi	r22, 0x00	; 0
     918:	8e 85       	ldd	r24, Y+14	; 0x0e
     91a:	0e 94 ac 0c 	call	0x1958	; 0x1958 <digitalWrite>
     91e:	61 e0       	ldi	r22, 0x01	; 1
     920:	88 89       	ldd	r24, Y+16	; 0x10
     922:	0e 94 ac 0c 	call	0x1958	; 0x1958 <digitalWrite>
     926:	60 e0       	ldi	r22, 0x00	; 0
     928:	8a 89       	ldd	r24, Y+18	; 0x12
     92a:	0e 94 ac 0c 	call	0x1958	; 0x1958 <digitalWrite>
     92e:	60 e0       	ldi	r22, 0x00	; 0
     930:	13 c0       	rjmp	.+38     	; 0x958 <__stack+0x59>
     932:	61 e0       	ldi	r22, 0x01	; 1
     934:	01 c0       	rjmp	.+2      	; 0x938 <__stack+0x39>
     936:	60 e0       	ldi	r22, 0x00	; 0
     938:	8c 85       	ldd	r24, Y+12	; 0x0c
     93a:	0e 94 ac 0c 	call	0x1958	; 0x1958 <digitalWrite>
     93e:	60 e0       	ldi	r22, 0x00	; 0
     940:	8e 85       	ldd	r24, Y+14	; 0x0e
     942:	0e 94 ac 0c 	call	0x1958	; 0x1958 <digitalWrite>
     946:	61 e0       	ldi	r22, 0x01	; 1
     948:	88 89       	ldd	r24, Y+16	; 0x10
     94a:	0e 94 ac 0c 	call	0x1958	; 0x1958 <digitalWrite>
     94e:	60 e0       	ldi	r22, 0x00	; 0
     950:	8a 89       	ldd	r24, Y+18	; 0x12
     952:	0e 94 ac 0c 	call	0x1958	; 0x1958 <digitalWrite>
     956:	61 e0       	ldi	r22, 0x01	; 1
     958:	8c 89       	ldd	r24, Y+20	; 0x14
     95a:	df 91       	pop	r29
     95c:	cf 91       	pop	r28
     95e:	1f 91       	pop	r17
     960:	0f 91       	pop	r16
     962:	0c 94 ac 0c 	jmp	0x1958	; 0x1958 <digitalWrite>
     966:	df 91       	pop	r29
     968:	cf 91       	pop	r28
     96a:	1f 91       	pop	r17
     96c:	0f 91       	pop	r16
     96e:	08 95       	ret

00000970 <_ZN7Stepper4stepEi>:
     970:	4f 92       	push	r4
     972:	5f 92       	push	r5
     974:	6f 92       	push	r6
     976:	7f 92       	push	r7
     978:	8f 92       	push	r8
     97a:	9f 92       	push	r9
     97c:	af 92       	push	r10
     97e:	bf 92       	push	r11
     980:	cf 92       	push	r12
     982:	df 92       	push	r13
     984:	ef 92       	push	r14
     986:	ff 92       	push	r15
     988:	0f 93       	push	r16
     98a:	1f 93       	push	r17
     98c:	cf 93       	push	r28
     98e:	df 93       	push	r29
     990:	ec 01       	movw	r28, r24
     992:	8b 01       	movw	r16, r22
     994:	77 ff       	sbrs	r23, 7
     996:	04 c0       	rjmp	.+8      	; 0x9a0 <_ZN7Stepper4stepEi+0x30>
     998:	00 27       	eor	r16, r16
     99a:	11 27       	eor	r17, r17
     99c:	06 1b       	sub	r16, r22
     99e:	17 0b       	sbc	r17, r23
     9a0:	16 16       	cp	r1, r22
     9a2:	17 06       	cpc	r1, r23
     9a4:	2c f4       	brge	.+10     	; 0x9b0 <_ZN7Stepper4stepEi+0x40>
     9a6:	81 e0       	ldi	r24, 0x01	; 1
     9a8:	90 e0       	ldi	r25, 0x00	; 0
     9aa:	99 83       	std	Y+1, r25	; 0x01
     9ac:	88 83       	st	Y, r24
     9ae:	04 c0       	rjmp	.+8      	; 0x9b8 <_ZN7Stepper4stepEi+0x48>
     9b0:	67 2b       	or	r22, r23
     9b2:	11 f0       	breq	.+4      	; 0x9b8 <_ZN7Stepper4stepEi+0x48>
     9b4:	19 82       	std	Y+1, r1	; 0x01
     9b6:	18 82       	st	Y, r1
     9b8:	84 e0       	ldi	r24, 0x04	; 4
     9ba:	e8 2e       	mov	r14, r24
     9bc:	f1 2c       	mov	r15, r1
     9be:	9a e0       	ldi	r25, 0x0A	; 10
     9c0:	c9 2e       	mov	r12, r25
     9c2:	d1 2c       	mov	r13, r1
     9c4:	01 15       	cp	r16, r1
     9c6:	11 05       	cpc	r17, r1
     9c8:	09 f4       	brne	.+2      	; 0x9cc <_ZN7Stepper4stepEi+0x5c>
     9ca:	49 c0       	rjmp	.+146    	; 0xa5e <_ZN7Stepper4stepEi+0xee>
     9cc:	0e 94 41 0b 	call	0x1682	; 0x1682 <micros>
     9d0:	8e 88       	ldd	r8, Y+22	; 0x16
     9d2:	9f 88       	ldd	r9, Y+23	; 0x17
     9d4:	a8 8c       	ldd	r10, Y+24	; 0x18
     9d6:	b9 8c       	ldd	r11, Y+25	; 0x19
     9d8:	2b 01       	movw	r4, r22
     9da:	3c 01       	movw	r6, r24
     9dc:	48 18       	sub	r4, r8
     9de:	59 08       	sbc	r5, r9
     9e0:	6a 08       	sbc	r6, r10
     9e2:	7b 08       	sbc	r7, r11
     9e4:	8a 80       	ldd	r8, Y+2	; 0x02
     9e6:	9b 80       	ldd	r9, Y+3	; 0x03
     9e8:	ac 80       	ldd	r10, Y+4	; 0x04
     9ea:	bd 80       	ldd	r11, Y+5	; 0x05
     9ec:	48 14       	cp	r4, r8
     9ee:	59 04       	cpc	r5, r9
     9f0:	6a 04       	cpc	r6, r10
     9f2:	7b 04       	cpc	r7, r11
     9f4:	38 f3       	brcs	.-50     	; 0x9c4 <_ZN7Stepper4stepEi+0x54>
     9f6:	6e 8b       	std	Y+22, r22	; 0x16
     9f8:	7f 8b       	std	Y+23, r23	; 0x17
     9fa:	88 8f       	std	Y+24, r24	; 0x18
     9fc:	99 8f       	std	Y+25, r25	; 0x19
     9fe:	28 81       	ld	r18, Y
     a00:	39 81       	ldd	r19, Y+1	; 0x01
     a02:	8a 85       	ldd	r24, Y+10	; 0x0a
     a04:	9b 85       	ldd	r25, Y+11	; 0x0b
     a06:	21 30       	cpi	r18, 0x01	; 1
     a08:	31 05       	cpc	r19, r1
     a0a:	59 f4       	brne	.+22     	; 0xa22 <_ZN7Stepper4stepEi+0xb2>
     a0c:	01 96       	adiw	r24, 0x01	; 1
     a0e:	9b 87       	std	Y+11, r25	; 0x0b
     a10:	8a 87       	std	Y+10, r24	; 0x0a
     a12:	2e 81       	ldd	r18, Y+6	; 0x06
     a14:	3f 81       	ldd	r19, Y+7	; 0x07
     a16:	82 17       	cp	r24, r18
     a18:	93 07       	cpc	r25, r19
     a1a:	71 f4       	brne	.+28     	; 0xa38 <_ZN7Stepper4stepEi+0xc8>
     a1c:	1b 86       	std	Y+11, r1	; 0x0b
     a1e:	1a 86       	std	Y+10, r1	; 0x0a
     a20:	0b c0       	rjmp	.+22     	; 0xa38 <_ZN7Stepper4stepEi+0xc8>
     a22:	89 2b       	or	r24, r25
     a24:	21 f4       	brne	.+8      	; 0xa2e <_ZN7Stepper4stepEi+0xbe>
     a26:	8e 81       	ldd	r24, Y+6	; 0x06
     a28:	9f 81       	ldd	r25, Y+7	; 0x07
     a2a:	9b 87       	std	Y+11, r25	; 0x0b
     a2c:	8a 87       	std	Y+10, r24	; 0x0a
     a2e:	8a 85       	ldd	r24, Y+10	; 0x0a
     a30:	9b 85       	ldd	r25, Y+11	; 0x0b
     a32:	01 97       	sbiw	r24, 0x01	; 1
     a34:	9b 87       	std	Y+11, r25	; 0x0b
     a36:	8a 87       	std	Y+10, r24	; 0x0a
     a38:	01 50       	subi	r16, 0x01	; 1
     a3a:	11 09       	sbc	r17, r1
     a3c:	28 85       	ldd	r18, Y+8	; 0x08
     a3e:	39 85       	ldd	r19, Y+9	; 0x09
     a40:	8a 85       	ldd	r24, Y+10	; 0x0a
     a42:	9b 85       	ldd	r25, Y+11	; 0x0b
     a44:	25 30       	cpi	r18, 0x05	; 5
     a46:	31 05       	cpc	r19, r1
     a48:	11 f4       	brne	.+4      	; 0xa4e <_ZN7Stepper4stepEi+0xde>
     a4a:	b6 01       	movw	r22, r12
     a4c:	01 c0       	rjmp	.+2      	; 0xa50 <_ZN7Stepper4stepEi+0xe0>
     a4e:	b7 01       	movw	r22, r14
     a50:	0e 94 dc 0c 	call	0x19b8	; 0x19b8 <__divmodhi4>
     a54:	bc 01       	movw	r22, r24
     a56:	ce 01       	movw	r24, r28
     a58:	0e 94 d8 03 	call	0x7b0	; 0x7b0 <_ZN7Stepper9stepMotorEi>
     a5c:	b3 cf       	rjmp	.-154    	; 0x9c4 <_ZN7Stepper4stepEi+0x54>
     a5e:	df 91       	pop	r29
     a60:	cf 91       	pop	r28
     a62:	1f 91       	pop	r17
     a64:	0f 91       	pop	r16
     a66:	ff 90       	pop	r15
     a68:	ef 90       	pop	r14
     a6a:	df 90       	pop	r13
     a6c:	cf 90       	pop	r12
     a6e:	bf 90       	pop	r11
     a70:	af 90       	pop	r10
     a72:	9f 90       	pop	r9
     a74:	8f 90       	pop	r8
     a76:	7f 90       	pop	r7
     a78:	6f 90       	pop	r6
     a7a:	5f 90       	pop	r5
     a7c:	4f 90       	pop	r4
     a7e:	08 95       	ret

00000a80 <_ZN14HardwareSerial9availableEv>:
     a80:	fc 01       	movw	r30, r24
     a82:	91 8d       	ldd	r25, Z+25	; 0x19
     a84:	22 8d       	ldd	r18, Z+26	; 0x1a
     a86:	89 2f       	mov	r24, r25
     a88:	90 e0       	ldi	r25, 0x00	; 0
     a8a:	80 5c       	subi	r24, 0xC0	; 192
     a8c:	9f 4f       	sbci	r25, 0xFF	; 255
     a8e:	82 1b       	sub	r24, r18
     a90:	91 09       	sbc	r25, r1
     a92:	8f 73       	andi	r24, 0x3F	; 63
     a94:	99 27       	eor	r25, r25
     a96:	08 95       	ret

00000a98 <_ZN14HardwareSerial4peekEv>:
     a98:	fc 01       	movw	r30, r24
     a9a:	91 8d       	ldd	r25, Z+25	; 0x19
     a9c:	82 8d       	ldd	r24, Z+26	; 0x1a
     a9e:	98 17       	cp	r25, r24
     aa0:	31 f0       	breq	.+12     	; 0xaae <_ZN14HardwareSerial4peekEv+0x16>
     aa2:	82 8d       	ldd	r24, Z+26	; 0x1a
     aa4:	e8 0f       	add	r30, r24
     aa6:	f1 1d       	adc	r31, r1
     aa8:	85 8d       	ldd	r24, Z+29	; 0x1d
     aaa:	90 e0       	ldi	r25, 0x00	; 0
     aac:	08 95       	ret
     aae:	8f ef       	ldi	r24, 0xFF	; 255
     ab0:	9f ef       	ldi	r25, 0xFF	; 255
     ab2:	08 95       	ret

00000ab4 <_ZN14HardwareSerial4readEv>:
     ab4:	fc 01       	movw	r30, r24
     ab6:	91 8d       	ldd	r25, Z+25	; 0x19
     ab8:	82 8d       	ldd	r24, Z+26	; 0x1a
     aba:	98 17       	cp	r25, r24
     abc:	61 f0       	breq	.+24     	; 0xad6 <_ZN14HardwareSerial4readEv+0x22>
     abe:	82 8d       	ldd	r24, Z+26	; 0x1a
     ac0:	df 01       	movw	r26, r30
     ac2:	a8 0f       	add	r26, r24
     ac4:	b1 1d       	adc	r27, r1
     ac6:	5d 96       	adiw	r26, 0x1d	; 29
     ac8:	8c 91       	ld	r24, X
     aca:	92 8d       	ldd	r25, Z+26	; 0x1a
     acc:	9f 5f       	subi	r25, 0xFF	; 255
     ace:	9f 73       	andi	r25, 0x3F	; 63
     ad0:	92 8f       	std	Z+26, r25	; 0x1a
     ad2:	90 e0       	ldi	r25, 0x00	; 0
     ad4:	08 95       	ret
     ad6:	8f ef       	ldi	r24, 0xFF	; 255
     ad8:	9f ef       	ldi	r25, 0xFF	; 255
     ada:	08 95       	ret

00000adc <_ZN14HardwareSerial17availableForWriteEv>:
     adc:	fc 01       	movw	r30, r24
     ade:	53 8d       	ldd	r21, Z+27	; 0x1b
     ae0:	44 8d       	ldd	r20, Z+28	; 0x1c
     ae2:	25 2f       	mov	r18, r21
     ae4:	30 e0       	ldi	r19, 0x00	; 0
     ae6:	84 2f       	mov	r24, r20
     ae8:	90 e0       	ldi	r25, 0x00	; 0
     aea:	82 1b       	sub	r24, r18
     aec:	93 0b       	sbc	r25, r19
     aee:	54 17       	cp	r21, r20
     af0:	10 f0       	brcs	.+4      	; 0xaf6 <_ZN14HardwareSerial17availableForWriteEv+0x1a>
     af2:	cf 96       	adiw	r24, 0x3f	; 63
     af4:	08 95       	ret
     af6:	01 97       	sbiw	r24, 0x01	; 1
     af8:	08 95       	ret

00000afa <_Z14serialEventRunv>:
     afa:	89 ed       	ldi	r24, 0xD9	; 217
     afc:	96 e0       	ldi	r25, 0x06	; 6
     afe:	89 2b       	or	r24, r25
     b00:	49 f0       	breq	.+18     	; 0xb14 <_Z14serialEventRunv+0x1a>
     b02:	80 e0       	ldi	r24, 0x00	; 0
     b04:	90 e0       	ldi	r25, 0x00	; 0
     b06:	89 2b       	or	r24, r25
     b08:	29 f0       	breq	.+10     	; 0xb14 <_Z14serialEventRunv+0x1a>
     b0a:	0e 94 d9 06 	call	0xdb2	; 0xdb2 <_Z17Serial0_availablev>
     b0e:	81 11       	cpse	r24, r1
     b10:	0c 94 00 00 	jmp	0	; 0x0 <__vectors>
     b14:	08 95       	ret

00000b16 <_ZN14HardwareSerial17_tx_udr_empty_irqEv>:
     b16:	fc 01       	movw	r30, r24
     b18:	84 8d       	ldd	r24, Z+28	; 0x1c
     b1a:	df 01       	movw	r26, r30
     b1c:	a8 0f       	add	r26, r24
     b1e:	b1 1d       	adc	r27, r1
     b20:	a3 5a       	subi	r26, 0xA3	; 163
     b22:	bf 4f       	sbci	r27, 0xFF	; 255
     b24:	2c 91       	ld	r18, X
     b26:	84 8d       	ldd	r24, Z+28	; 0x1c
     b28:	90 e0       	ldi	r25, 0x00	; 0
     b2a:	01 96       	adiw	r24, 0x01	; 1
     b2c:	8f 73       	andi	r24, 0x3F	; 63
     b2e:	99 27       	eor	r25, r25
     b30:	84 8f       	std	Z+28, r24	; 0x1c
     b32:	a6 89       	ldd	r26, Z+22	; 0x16
     b34:	b7 89       	ldd	r27, Z+23	; 0x17
     b36:	2c 93       	st	X, r18
     b38:	a0 89       	ldd	r26, Z+16	; 0x10
     b3a:	b1 89       	ldd	r27, Z+17	; 0x11
     b3c:	8c 91       	ld	r24, X
     b3e:	83 70       	andi	r24, 0x03	; 3
     b40:	80 64       	ori	r24, 0x40	; 64
     b42:	8c 93       	st	X, r24
     b44:	93 8d       	ldd	r25, Z+27	; 0x1b
     b46:	84 8d       	ldd	r24, Z+28	; 0x1c
     b48:	98 13       	cpse	r25, r24
     b4a:	06 c0       	rjmp	.+12     	; 0xb58 <_ZN14HardwareSerial17_tx_udr_empty_irqEv+0x42>
     b4c:	02 88       	ldd	r0, Z+18	; 0x12
     b4e:	f3 89       	ldd	r31, Z+19	; 0x13
     b50:	e0 2d       	mov	r30, r0
     b52:	80 81       	ld	r24, Z
     b54:	8f 7d       	andi	r24, 0xDF	; 223
     b56:	80 83       	st	Z, r24
     b58:	08 95       	ret

00000b5a <_ZN14HardwareSerial5writeEh>:
     b5a:	ef 92       	push	r14
     b5c:	ff 92       	push	r15
     b5e:	0f 93       	push	r16
     b60:	1f 93       	push	r17
     b62:	cf 93       	push	r28
     b64:	df 93       	push	r29
     b66:	ec 01       	movw	r28, r24
     b68:	81 e0       	ldi	r24, 0x01	; 1
     b6a:	88 8f       	std	Y+24, r24	; 0x18
     b6c:	9b 8d       	ldd	r25, Y+27	; 0x1b
     b6e:	8c 8d       	ldd	r24, Y+28	; 0x1c
     b70:	98 13       	cpse	r25, r24
     b72:	05 c0       	rjmp	.+10     	; 0xb7e <_ZN14HardwareSerial5writeEh+0x24>
     b74:	e8 89       	ldd	r30, Y+16	; 0x10
     b76:	f9 89       	ldd	r31, Y+17	; 0x11
     b78:	80 81       	ld	r24, Z
     b7a:	85 fd       	sbrc	r24, 5
     b7c:	26 c0       	rjmp	.+76     	; 0xbca <_ZN14HardwareSerial5writeEh+0x70>
     b7e:	f6 2e       	mov	r15, r22
     b80:	0b 8d       	ldd	r16, Y+27	; 0x1b
     b82:	10 e0       	ldi	r17, 0x00	; 0
     b84:	0f 5f       	subi	r16, 0xFF	; 255
     b86:	1f 4f       	sbci	r17, 0xFF	; 255
     b88:	0f 73       	andi	r16, 0x3F	; 63
     b8a:	11 27       	eor	r17, r17
     b8c:	e0 2e       	mov	r14, r16
     b8e:	8c 8d       	ldd	r24, Y+28	; 0x1c
     b90:	e8 12       	cpse	r14, r24
     b92:	0c c0       	rjmp	.+24     	; 0xbac <_ZN14HardwareSerial5writeEh+0x52>
     b94:	0f b6       	in	r0, 0x3f	; 63
     b96:	07 fc       	sbrc	r0, 7
     b98:	fa cf       	rjmp	.-12     	; 0xb8e <_ZN14HardwareSerial5writeEh+0x34>
     b9a:	e8 89       	ldd	r30, Y+16	; 0x10
     b9c:	f9 89       	ldd	r31, Y+17	; 0x11
     b9e:	80 81       	ld	r24, Z
     ba0:	85 ff       	sbrs	r24, 5
     ba2:	f5 cf       	rjmp	.-22     	; 0xb8e <_ZN14HardwareSerial5writeEh+0x34>
     ba4:	ce 01       	movw	r24, r28
     ba6:	0e 94 8b 05 	call	0xb16	; 0xb16 <_ZN14HardwareSerial17_tx_udr_empty_irqEv>
     baa:	f1 cf       	rjmp	.-30     	; 0xb8e <_ZN14HardwareSerial5writeEh+0x34>
     bac:	8b 8d       	ldd	r24, Y+27	; 0x1b
     bae:	fe 01       	movw	r30, r28
     bb0:	e8 0f       	add	r30, r24
     bb2:	f1 1d       	adc	r31, r1
     bb4:	e3 5a       	subi	r30, 0xA3	; 163
     bb6:	ff 4f       	sbci	r31, 0xFF	; 255
     bb8:	f0 82       	st	Z, r15
     bba:	9f b7       	in	r25, 0x3f	; 63
    return 1;
}

static __inline__ uint8_t __iCliRetVal(void)
{
    cli();
     bbc:	f8 94       	cli
     bbe:	0b 8f       	std	Y+27, r16	; 0x1b
     bc0:	ea 89       	ldd	r30, Y+18	; 0x12
     bc2:	fb 89       	ldd	r31, Y+19	; 0x13
     bc4:	80 81       	ld	r24, Z
     bc6:	80 62       	ori	r24, 0x20	; 32
     bc8:	0a c0       	rjmp	.+20     	; 0xbde <_ZN14HardwareSerial5writeEh+0x84>
     bca:	9f b7       	in	r25, 0x3f	; 63
     bcc:	f8 94       	cli
     bce:	ee 89       	ldd	r30, Y+22	; 0x16
     bd0:	ff 89       	ldd	r31, Y+23	; 0x17
     bd2:	60 83       	st	Z, r22
     bd4:	e8 89       	ldd	r30, Y+16	; 0x10
     bd6:	f9 89       	ldd	r31, Y+17	; 0x11
     bd8:	80 81       	ld	r24, Z
     bda:	83 70       	andi	r24, 0x03	; 3
     bdc:	80 64       	ori	r24, 0x40	; 64
     bde:	80 83       	st	Z, r24
    (void)__s;
}

static __inline__ void __iRestore(const  uint8_t *__s)
{
    SREG = *__s;
     be0:	9f bf       	out	0x3f, r25	; 63
     be2:	81 e0       	ldi	r24, 0x01	; 1
     be4:	90 e0       	ldi	r25, 0x00	; 0
     be6:	df 91       	pop	r29
     be8:	cf 91       	pop	r28
     bea:	1f 91       	pop	r17
     bec:	0f 91       	pop	r16
     bee:	ff 90       	pop	r15
     bf0:	ef 90       	pop	r14
     bf2:	08 95       	ret

00000bf4 <_ZN14HardwareSerial5flushEv>:
     bf4:	cf 93       	push	r28
     bf6:	df 93       	push	r29
     bf8:	ec 01       	movw	r28, r24
     bfa:	88 8d       	ldd	r24, Y+24	; 0x18
     bfc:	88 23       	and	r24, r24
     bfe:	c9 f0       	breq	.+50     	; 0xc32 <_ZN14HardwareSerial5flushEv+0x3e>
     c00:	ea 89       	ldd	r30, Y+18	; 0x12
     c02:	fb 89       	ldd	r31, Y+19	; 0x13
     c04:	80 81       	ld	r24, Z
     c06:	85 fd       	sbrc	r24, 5
     c08:	05 c0       	rjmp	.+10     	; 0xc14 <_ZN14HardwareSerial5flushEv+0x20>
     c0a:	a8 89       	ldd	r26, Y+16	; 0x10
     c0c:	b9 89       	ldd	r27, Y+17	; 0x11
     c0e:	8c 91       	ld	r24, X
     c10:	86 fd       	sbrc	r24, 6
     c12:	0f c0       	rjmp	.+30     	; 0xc32 <_ZN14HardwareSerial5flushEv+0x3e>
     c14:	0f b6       	in	r0, 0x3f	; 63
     c16:	07 fc       	sbrc	r0, 7
     c18:	f5 cf       	rjmp	.-22     	; 0xc04 <_ZN14HardwareSerial5flushEv+0x10>
     c1a:	80 81       	ld	r24, Z
     c1c:	85 ff       	sbrs	r24, 5
     c1e:	f2 cf       	rjmp	.-28     	; 0xc04 <_ZN14HardwareSerial5flushEv+0x10>
     c20:	a8 89       	ldd	r26, Y+16	; 0x10
     c22:	b9 89       	ldd	r27, Y+17	; 0x11
     c24:	8c 91       	ld	r24, X
     c26:	85 ff       	sbrs	r24, 5
     c28:	ed cf       	rjmp	.-38     	; 0xc04 <_ZN14HardwareSerial5flushEv+0x10>
     c2a:	ce 01       	movw	r24, r28
     c2c:	0e 94 8b 05 	call	0xb16	; 0xb16 <_ZN14HardwareSerial17_tx_udr_empty_irqEv>
     c30:	e7 cf       	rjmp	.-50     	; 0xc00 <_ZN14HardwareSerial5flushEv+0xc>
     c32:	df 91       	pop	r29
     c34:	cf 91       	pop	r28
     c36:	08 95       	ret

00000c38 <_ZN14HardwareSerial5beginEmh>:
     c38:	cf 92       	push	r12
     c3a:	df 92       	push	r13
     c3c:	ef 92       	push	r14
     c3e:	ff 92       	push	r15
     c40:	1f 93       	push	r17
     c42:	cf 93       	push	r28
     c44:	df 93       	push	r29
     c46:	ec 01       	movw	r28, r24
     c48:	6a 01       	movw	r12, r20
     c4a:	7b 01       	movw	r14, r22
     c4c:	12 2f       	mov	r17, r18
     c4e:	e8 89       	ldd	r30, Y+16	; 0x10
     c50:	f9 89       	ldd	r31, Y+17	; 0x11
     c52:	82 e0       	ldi	r24, 0x02	; 2
     c54:	80 83       	st	Z, r24
     c56:	41 15       	cp	r20, r1
     c58:	51 4e       	sbci	r21, 0xE1	; 225
     c5a:	61 05       	cpc	r22, r1
     c5c:	71 05       	cpc	r23, r1
     c5e:	b1 f0       	breq	.+44     	; 0xc8c <_ZN14HardwareSerial5beginEmh+0x54>
     c60:	60 e0       	ldi	r22, 0x00	; 0
     c62:	79 e0       	ldi	r23, 0x09	; 9
     c64:	8d e3       	ldi	r24, 0x3D	; 61
     c66:	90 e0       	ldi	r25, 0x00	; 0
     c68:	a7 01       	movw	r20, r14
     c6a:	96 01       	movw	r18, r12
     c6c:	0e 94 f0 0c 	call	0x19e0	; 0x19e0 <__udivmodsi4>
     c70:	da 01       	movw	r26, r20
     c72:	c9 01       	movw	r24, r18
     c74:	01 97       	sbiw	r24, 0x01	; 1
     c76:	a1 09       	sbc	r26, r1
     c78:	b1 09       	sbc	r27, r1
     c7a:	b6 95       	lsr	r27
     c7c:	a7 95       	ror	r26
     c7e:	97 95       	ror	r25
     c80:	87 95       	ror	r24
     c82:	9c 01       	movw	r18, r24
     c84:	21 15       	cp	r18, r1
     c86:	80 e1       	ldi	r24, 0x10	; 16
     c88:	38 07       	cpc	r19, r24
     c8a:	a8 f0       	brcs	.+42     	; 0xcb6 <_ZN14HardwareSerial5beginEmh+0x7e>
     c8c:	e8 89       	ldd	r30, Y+16	; 0x10
     c8e:	f9 89       	ldd	r31, Y+17	; 0x11
     c90:	10 82       	st	Z, r1
     c92:	60 e8       	ldi	r22, 0x80	; 128
     c94:	74 e8       	ldi	r23, 0x84	; 132
     c96:	8e e1       	ldi	r24, 0x1E	; 30
     c98:	90 e0       	ldi	r25, 0x00	; 0
     c9a:	a7 01       	movw	r20, r14
     c9c:	96 01       	movw	r18, r12
     c9e:	0e 94 f0 0c 	call	0x19e0	; 0x19e0 <__udivmodsi4>
     ca2:	da 01       	movw	r26, r20
     ca4:	c9 01       	movw	r24, r18
     ca6:	01 97       	sbiw	r24, 0x01	; 1
     ca8:	a1 09       	sbc	r26, r1
     caa:	b1 09       	sbc	r27, r1
     cac:	b6 95       	lsr	r27
     cae:	a7 95       	ror	r26
     cb0:	97 95       	ror	r25
     cb2:	87 95       	ror	r24
     cb4:	9c 01       	movw	r18, r24
     cb6:	ec 85       	ldd	r30, Y+12	; 0x0c
     cb8:	fd 85       	ldd	r31, Y+13	; 0x0d
     cba:	30 83       	st	Z, r19
     cbc:	ee 85       	ldd	r30, Y+14	; 0x0e
     cbe:	ff 85       	ldd	r31, Y+15	; 0x0f
     cc0:	20 83       	st	Z, r18
     cc2:	18 8e       	std	Y+24, r1	; 0x18
     cc4:	ec 89       	ldd	r30, Y+20	; 0x14
     cc6:	fd 89       	ldd	r31, Y+21	; 0x15
     cc8:	10 83       	st	Z, r17
     cca:	ea 89       	ldd	r30, Y+18	; 0x12
     ccc:	fb 89       	ldd	r31, Y+19	; 0x13
     cce:	80 81       	ld	r24, Z
     cd0:	80 61       	ori	r24, 0x10	; 16
     cd2:	80 83       	st	Z, r24
     cd4:	ea 89       	ldd	r30, Y+18	; 0x12
     cd6:	fb 89       	ldd	r31, Y+19	; 0x13
     cd8:	80 81       	ld	r24, Z
     cda:	88 60       	ori	r24, 0x08	; 8
     cdc:	80 83       	st	Z, r24
     cde:	ea 89       	ldd	r30, Y+18	; 0x12
     ce0:	fb 89       	ldd	r31, Y+19	; 0x13
     ce2:	80 81       	ld	r24, Z
     ce4:	80 68       	ori	r24, 0x80	; 128
     ce6:	80 83       	st	Z, r24
     ce8:	ea 89       	ldd	r30, Y+18	; 0x12
     cea:	fb 89       	ldd	r31, Y+19	; 0x13
     cec:	80 81       	ld	r24, Z
     cee:	8f 7d       	andi	r24, 0xDF	; 223
     cf0:	80 83       	st	Z, r24
     cf2:	df 91       	pop	r29
     cf4:	cf 91       	pop	r28
     cf6:	1f 91       	pop	r17
     cf8:	ff 90       	pop	r15
     cfa:	ef 90       	pop	r14
     cfc:	df 90       	pop	r13
     cfe:	cf 90       	pop	r12
     d00:	08 95       	ret

00000d02 <__vector_18>:
     d02:	1f 92       	push	r1
     d04:	0f 92       	push	r0
     d06:	0f b6       	in	r0, 0x3f	; 63
     d08:	0f 92       	push	r0
     d0a:	11 24       	eor	r1, r1
     d0c:	2f 93       	push	r18
     d0e:	8f 93       	push	r24
     d10:	9f 93       	push	r25
     d12:	ef 93       	push	r30
     d14:	ff 93       	push	r31
     d16:	e0 91 d0 01 	lds	r30, 0x01D0	; 0x8001d0 <Serial+0x10>
     d1a:	f0 91 d1 01 	lds	r31, 0x01D1	; 0x8001d1 <Serial+0x11>
     d1e:	80 81       	ld	r24, Z
     d20:	e0 91 d6 01 	lds	r30, 0x01D6	; 0x8001d6 <Serial+0x16>
     d24:	f0 91 d7 01 	lds	r31, 0x01D7	; 0x8001d7 <Serial+0x17>
     d28:	82 fd       	sbrc	r24, 2
     d2a:	12 c0       	rjmp	.+36     	; 0xd50 <__vector_18+0x4e>
     d2c:	90 81       	ld	r25, Z
     d2e:	80 91 d9 01 	lds	r24, 0x01D9	; 0x8001d9 <Serial+0x19>
     d32:	8f 5f       	subi	r24, 0xFF	; 255
     d34:	8f 73       	andi	r24, 0x3F	; 63
     d36:	20 91 da 01 	lds	r18, 0x01DA	; 0x8001da <Serial+0x1a>
     d3a:	82 17       	cp	r24, r18
     d3c:	51 f0       	breq	.+20     	; 0xd52 <__vector_18+0x50>
     d3e:	e0 91 d9 01 	lds	r30, 0x01D9	; 0x8001d9 <Serial+0x19>
     d42:	f0 e0       	ldi	r31, 0x00	; 0
     d44:	e0 54       	subi	r30, 0x40	; 64
     d46:	fe 4f       	sbci	r31, 0xFE	; 254
     d48:	95 8f       	std	Z+29, r25	; 0x1d
     d4a:	80 93 d9 01 	sts	0x01D9, r24	; 0x8001d9 <Serial+0x19>
     d4e:	01 c0       	rjmp	.+2      	; 0xd52 <__vector_18+0x50>
     d50:	80 81       	ld	r24, Z
     d52:	ff 91       	pop	r31
     d54:	ef 91       	pop	r30
     d56:	9f 91       	pop	r25
     d58:	8f 91       	pop	r24
     d5a:	2f 91       	pop	r18
     d5c:	0f 90       	pop	r0
     d5e:	0f be       	out	0x3f, r0	; 63
     d60:	0f 90       	pop	r0
     d62:	1f 90       	pop	r1
     d64:	18 95       	reti

00000d66 <__vector_19>:
     d66:	1f 92       	push	r1
     d68:	0f 92       	push	r0
     d6a:	0f b6       	in	r0, 0x3f	; 63
     d6c:	0f 92       	push	r0
     d6e:	11 24       	eor	r1, r1
     d70:	2f 93       	push	r18
     d72:	3f 93       	push	r19
     d74:	4f 93       	push	r20
     d76:	5f 93       	push	r21
     d78:	6f 93       	push	r22
     d7a:	7f 93       	push	r23
     d7c:	8f 93       	push	r24
     d7e:	9f 93       	push	r25
     d80:	af 93       	push	r26
     d82:	bf 93       	push	r27
     d84:	ef 93       	push	r30
     d86:	ff 93       	push	r31
     d88:	80 ec       	ldi	r24, 0xC0	; 192
     d8a:	91 e0       	ldi	r25, 0x01	; 1
     d8c:	0e 94 8b 05 	call	0xb16	; 0xb16 <_ZN14HardwareSerial17_tx_udr_empty_irqEv>
     d90:	ff 91       	pop	r31
     d92:	ef 91       	pop	r30
     d94:	bf 91       	pop	r27
     d96:	af 91       	pop	r26
     d98:	9f 91       	pop	r25
     d9a:	8f 91       	pop	r24
     d9c:	7f 91       	pop	r23
     d9e:	6f 91       	pop	r22
     da0:	5f 91       	pop	r21
     da2:	4f 91       	pop	r20
     da4:	3f 91       	pop	r19
     da6:	2f 91       	pop	r18
     da8:	0f 90       	pop	r0
     daa:	0f be       	out	0x3f, r0	; 63
     dac:	0f 90       	pop	r0
     dae:	1f 90       	pop	r1
     db0:	18 95       	reti

00000db2 <_Z17Serial0_availablev>:
     db2:	80 ec       	ldi	r24, 0xC0	; 192
     db4:	91 e0       	ldi	r25, 0x01	; 1
     db6:	0e 94 40 05 	call	0xa80	; 0xa80 <_ZN14HardwareSerial9availableEv>
     dba:	21 e0       	ldi	r18, 0x01	; 1
     dbc:	89 2b       	or	r24, r25
     dbe:	09 f4       	brne	.+2      	; 0xdc2 <_Z17Serial0_availablev+0x10>
     dc0:	20 e0       	ldi	r18, 0x00	; 0
     dc2:	82 2f       	mov	r24, r18
     dc4:	08 95       	ret

00000dc6 <_GLOBAL__sub_I___vector_18>:
     dc6:	e0 ec       	ldi	r30, 0xC0	; 192
     dc8:	f1 e0       	ldi	r31, 0x01	; 1
     dca:	13 82       	std	Z+3, r1	; 0x03
     dcc:	12 82       	std	Z+2, r1	; 0x02
     dce:	88 ee       	ldi	r24, 0xE8	; 232
     dd0:	93 e0       	ldi	r25, 0x03	; 3
     dd2:	a0 e0       	ldi	r26, 0x00	; 0
     dd4:	b0 e0       	ldi	r27, 0x00	; 0
     dd6:	84 83       	std	Z+4, r24	; 0x04
     dd8:	95 83       	std	Z+5, r25	; 0x05
     dda:	a6 83       	std	Z+6, r26	; 0x06
     ddc:	b7 83       	std	Z+7, r27	; 0x07
     dde:	8b e1       	ldi	r24, 0x1B	; 27
     de0:	91 e0       	ldi	r25, 0x01	; 1
     de2:	91 83       	std	Z+1, r25	; 0x01
     de4:	80 83       	st	Z, r24
     de6:	85 ec       	ldi	r24, 0xC5	; 197
     de8:	90 e0       	ldi	r25, 0x00	; 0
     dea:	95 87       	std	Z+13, r25	; 0x0d
     dec:	84 87       	std	Z+12, r24	; 0x0c
     dee:	84 ec       	ldi	r24, 0xC4	; 196
     df0:	90 e0       	ldi	r25, 0x00	; 0
     df2:	97 87       	std	Z+15, r25	; 0x0f
     df4:	86 87       	std	Z+14, r24	; 0x0e
     df6:	80 ec       	ldi	r24, 0xC0	; 192
     df8:	90 e0       	ldi	r25, 0x00	; 0
     dfa:	91 8b       	std	Z+17, r25	; 0x11
     dfc:	80 8b       	std	Z+16, r24	; 0x10
     dfe:	81 ec       	ldi	r24, 0xC1	; 193
     e00:	90 e0       	ldi	r25, 0x00	; 0
     e02:	93 8b       	std	Z+19, r25	; 0x13
     e04:	82 8b       	std	Z+18, r24	; 0x12
     e06:	82 ec       	ldi	r24, 0xC2	; 194
     e08:	90 e0       	ldi	r25, 0x00	; 0
     e0a:	95 8b       	std	Z+21, r25	; 0x15
     e0c:	84 8b       	std	Z+20, r24	; 0x14
     e0e:	86 ec       	ldi	r24, 0xC6	; 198
     e10:	90 e0       	ldi	r25, 0x00	; 0
     e12:	97 8b       	std	Z+23, r25	; 0x17
     e14:	86 8b       	std	Z+22, r24	; 0x16
     e16:	11 8e       	std	Z+25, r1	; 0x19
     e18:	12 8e       	std	Z+26, r1	; 0x1a
     e1a:	13 8e       	std	Z+27, r1	; 0x1b
     e1c:	14 8e       	std	Z+28, r1	; 0x1c
     e1e:	08 95       	ret

00000e20 <initVariant>:
     e20:	08 95       	ret

00000e22 <main>:
     e22:	0e 94 ad 0b 	call	0x175a	; 0x175a <init>
     e26:	0e 94 10 07 	call	0xe20	; 0xe20 <initVariant>
     e2a:	0e 94 d0 01 	call	0x3a0	; 0x3a0 <setup>
     e2e:	cd e7       	ldi	r28, 0x7D	; 125
     e30:	d5 e0       	ldi	r29, 0x05	; 5
     e32:	0e 94 f3 01 	call	0x3e6	; 0x3e6 <loop>
     e36:	20 97       	sbiw	r28, 0x00	; 0
     e38:	e1 f3       	breq	.-8      	; 0xe32 <main+0x10>
     e3a:	0e 94 7d 05 	call	0xafa	; 0xafa <_Z14serialEventRunv>
     e3e:	f9 cf       	rjmp	.-14     	; 0xe32 <main+0x10>

00000e40 <_ZN5Print5writeEPKhj>:
     e40:	cf 92       	push	r12
     e42:	df 92       	push	r13
     e44:	ef 92       	push	r14
     e46:	ff 92       	push	r15
     e48:	0f 93       	push	r16
     e4a:	1f 93       	push	r17
     e4c:	cf 93       	push	r28
     e4e:	df 93       	push	r29
     e50:	6c 01       	movw	r12, r24
     e52:	7a 01       	movw	r14, r20
     e54:	8b 01       	movw	r16, r22
     e56:	c0 e0       	ldi	r28, 0x00	; 0
     e58:	d0 e0       	ldi	r29, 0x00	; 0
     e5a:	ce 15       	cp	r28, r14
     e5c:	df 05       	cpc	r29, r15
     e5e:	81 f0       	breq	.+32     	; 0xe80 <_ZN5Print5writeEPKhj+0x40>
     e60:	d8 01       	movw	r26, r16
     e62:	6d 91       	ld	r22, X+
     e64:	8d 01       	movw	r16, r26
     e66:	d6 01       	movw	r26, r12
     e68:	ed 91       	ld	r30, X+
     e6a:	fc 91       	ld	r31, X
     e6c:	01 90       	ld	r0, Z+
     e6e:	f0 81       	ld	r31, Z
     e70:	e0 2d       	mov	r30, r0
     e72:	c6 01       	movw	r24, r12
     e74:	09 95       	icall
     e76:	89 2b       	or	r24, r25
     e78:	11 f0       	breq	.+4      	; 0xe7e <_ZN5Print5writeEPKhj+0x3e>
     e7a:	21 96       	adiw	r28, 0x01	; 1
     e7c:	ee cf       	rjmp	.-36     	; 0xe5a <_ZN5Print5writeEPKhj+0x1a>
     e7e:	7e 01       	movw	r14, r28
     e80:	c7 01       	movw	r24, r14
     e82:	df 91       	pop	r29
     e84:	cf 91       	pop	r28
     e86:	1f 91       	pop	r17
     e88:	0f 91       	pop	r16
     e8a:	ff 90       	pop	r15
     e8c:	ef 90       	pop	r14
     e8e:	df 90       	pop	r13
     e90:	cf 90       	pop	r12
     e92:	08 95       	ret

00000e94 <_ZN5Print5writeEPKc>:
     e94:	61 15       	cp	r22, r1
     e96:	71 05       	cpc	r23, r1
     e98:	79 f0       	breq	.+30     	; 0xeb8 <_ZN5Print5writeEPKc+0x24>
     e9a:	fb 01       	movw	r30, r22
     e9c:	01 90       	ld	r0, Z+
     e9e:	00 20       	and	r0, r0
     ea0:	e9 f7       	brne	.-6      	; 0xe9c <_ZN5Print5writeEPKc+0x8>
     ea2:	31 97       	sbiw	r30, 0x01	; 1
     ea4:	af 01       	movw	r20, r30
     ea6:	46 1b       	sub	r20, r22
     ea8:	57 0b       	sbc	r21, r23
     eaa:	dc 01       	movw	r26, r24
     eac:	ed 91       	ld	r30, X+
     eae:	fc 91       	ld	r31, X
     eb0:	02 80       	ldd	r0, Z+2	; 0x02
     eb2:	f3 81       	ldd	r31, Z+3	; 0x03
     eb4:	e0 2d       	mov	r30, r0
     eb6:	09 94       	ijmp
     eb8:	80 e0       	ldi	r24, 0x00	; 0
     eba:	90 e0       	ldi	r25, 0x00	; 0
     ebc:	08 95       	ret

00000ebe <_ZN5Print7printlnEv>:
     ebe:	69 e2       	ldi	r22, 0x29	; 41
     ec0:	71 e0       	ldi	r23, 0x01	; 1
     ec2:	0c 94 4a 07 	jmp	0xe94	; 0xe94 <_ZN5Print5writeEPKc>

00000ec6 <_ZN5Print7printlnEPKc>:
     ec6:	0f 93       	push	r16
     ec8:	1f 93       	push	r17
     eca:	cf 93       	push	r28
     ecc:	df 93       	push	r29
     ece:	ec 01       	movw	r28, r24
     ed0:	0e 94 4a 07 	call	0xe94	; 0xe94 <_ZN5Print5writeEPKc>
     ed4:	8c 01       	movw	r16, r24
     ed6:	ce 01       	movw	r24, r28
     ed8:	0e 94 5f 07 	call	0xebe	; 0xebe <_ZN5Print7printlnEv>
     edc:	80 0f       	add	r24, r16
     ede:	91 1f       	adc	r25, r17
     ee0:	df 91       	pop	r29
     ee2:	cf 91       	pop	r28
     ee4:	1f 91       	pop	r17
     ee6:	0f 91       	pop	r16
     ee8:	08 95       	ret

00000eea <_Z4tonehjm>:
     eea:	4f 92       	push	r4
     eec:	5f 92       	push	r5
     eee:	6f 92       	push	r6
     ef0:	7f 92       	push	r7
     ef2:	8f 92       	push	r8
     ef4:	9f 92       	push	r9
     ef6:	af 92       	push	r10
     ef8:	bf 92       	push	r11
     efa:	cf 92       	push	r12
     efc:	df 92       	push	r13
     efe:	ef 92       	push	r14
     f00:	ff 92       	push	r15
     f02:	0f 93       	push	r16
     f04:	1f 93       	push	r17
     f06:	cf 93       	push	r28
     f08:	df 93       	push	r29
     f0a:	00 d0       	rcall	.+0      	; 0xf0c <_Z4tonehjm+0x22>
     f0c:	00 d0       	rcall	.+0      	; 0xf0e <_Z4tonehjm+0x24>
     f0e:	1f 92       	push	r1
     f10:	cd b7       	in	r28, 0x3d	; 61
     f12:	de b7       	in	r29, 0x3e	; 62
     f14:	8b 01       	movw	r16, r22
     f16:	29 01       	movw	r4, r18
     f18:	3a 01       	movw	r6, r20
     f1a:	90 91 08 01 	lds	r25, 0x0108	; 0x800108 <_ZL9tone_pins>
     f1e:	89 17       	cp	r24, r25
     f20:	21 f0       	breq	.+8      	; 0xf2a <_Z4tonehjm+0x40>
     f22:	9f 3f       	cpi	r25, 0xFF	; 255
     f24:	09 f0       	breq	.+2      	; 0xf28 <_Z4tonehjm+0x3e>
     f26:	4d c2       	rjmp	.+1178   	; 0x13c2 <_Z4tonehjm+0x4d8>
     f28:	05 c0       	rjmp	.+10     	; 0xf34 <_Z4tonehjm+0x4a>
     f2a:	ec e7       	ldi	r30, 0x7C	; 124
     f2c:	f0 e0       	ldi	r31, 0x00	; 0
     f2e:	24 91       	lpm	r18, Z
     f30:	2d 83       	std	Y+5, r18	; 0x05
     f32:	84 c0       	rjmp	.+264    	; 0x103c <_Z4tonehjm+0x152>
     f34:	80 93 08 01 	sts	0x0108, r24	; 0x800108 <_ZL9tone_pins>
     f38:	ec e7       	ldi	r30, 0x7C	; 124
     f3a:	f0 e0       	ldi	r31, 0x00	; 0
     f3c:	94 91       	lpm	r25, Z
     f3e:	9d 83       	std	Y+5, r25	; 0x05
     f40:	9f 3f       	cpi	r25, 0xFF	; 255
     f42:	09 f4       	brne	.+2      	; 0xf46 <_Z4tonehjm+0x5c>
     f44:	3e c2       	rjmp	.+1148   	; 0x13c2 <_Z4tonehjm+0x4d8>
     f46:	91 30       	cpi	r25, 0x01	; 1
     f48:	09 f4       	brne	.+2      	; 0xf4c <_Z4tonehjm+0x62>
     f4a:	4d c0       	rjmp	.+154    	; 0xfe6 <_Z4tonehjm+0xfc>
     f4c:	58 f1       	brcs	.+86     	; 0xfa4 <_Z4tonehjm+0xba>
     f4e:	92 30       	cpi	r25, 0x02	; 2
     f50:	09 f0       	breq	.+2      	; 0xf54 <_Z4tonehjm+0x6a>
     f52:	74 c0       	rjmp	.+232    	; 0x103c <_Z4tonehjm+0x152>
     f54:	10 92 b0 00 	sts	0x00B0, r1	; 0x8000b0 <__DATA_REGION_ORIGIN__+0x50>
     f58:	10 92 b1 00 	sts	0x00B1, r1	; 0x8000b1 <__DATA_REGION_ORIGIN__+0x51>
     f5c:	90 91 b0 00 	lds	r25, 0x00B0	; 0x8000b0 <__DATA_REGION_ORIGIN__+0x50>
     f60:	92 60       	ori	r25, 0x02	; 2
     f62:	90 93 b0 00 	sts	0x00B0, r25	; 0x8000b0 <__DATA_REGION_ORIGIN__+0x50>
     f66:	90 91 b1 00 	lds	r25, 0x00B1	; 0x8000b1 <__DATA_REGION_ORIGIN__+0x51>
     f6a:	91 60       	ori	r25, 0x01	; 1
     f6c:	90 93 b1 00 	sts	0x00B1, r25	; 0x8000b1 <__DATA_REGION_ORIGIN__+0x51>
     f70:	28 2f       	mov	r18, r24
     f72:	30 e0       	ldi	r19, 0x00	; 0
     f74:	f9 01       	movw	r30, r18
     f76:	eb 55       	subi	r30, 0x5B	; 91
     f78:	ff 4f       	sbci	r31, 0xFF	; 255
     f7a:	e4 91       	lpm	r30, Z
     f7c:	f0 e0       	ldi	r31, 0x00	; 0
     f7e:	ee 0f       	add	r30, r30
     f80:	ff 1f       	adc	r31, r31
     f82:	e7 54       	subi	r30, 0x47	; 71
     f84:	ff 4f       	sbci	r31, 0xFF	; 255
     f86:	45 91       	lpm	r20, Z+
     f88:	54 91       	lpm	r21, Z
     f8a:	50 93 5f 02 	sts	0x025F, r21	; 0x80025f <timer2_pin_port+0x1>
     f8e:	40 93 5e 02 	sts	0x025E, r20	; 0x80025e <timer2_pin_port>
     f92:	f9 01       	movw	r30, r18
     f94:	ef 56       	subi	r30, 0x6F	; 111
     f96:	ff 4f       	sbci	r31, 0xFF	; 255
     f98:	e4 91       	lpm	r30, Z
     f9a:	e0 93 5d 02 	sts	0x025D, r30	; 0x80025d <timer2_pin_mask>
     f9e:	92 e0       	ldi	r25, 0x02	; 2
     fa0:	9d 83       	std	Y+5, r25	; 0x05
     fa2:	0b c2       	rjmp	.+1046   	; 0x13ba <_Z4tonehjm+0x4d0>
     fa4:	14 bc       	out	0x24, r1	; 36
     fa6:	15 bc       	out	0x25, r1	; 37
     fa8:	94 b5       	in	r25, 0x24	; 36
     faa:	92 60       	ori	r25, 0x02	; 2
     fac:	94 bd       	out	0x24, r25	; 36
     fae:	95 b5       	in	r25, 0x25	; 37
     fb0:	91 60       	ori	r25, 0x01	; 1
     fb2:	95 bd       	out	0x25, r25	; 37
     fb4:	28 2f       	mov	r18, r24
     fb6:	30 e0       	ldi	r19, 0x00	; 0
     fb8:	f9 01       	movw	r30, r18
     fba:	eb 55       	subi	r30, 0x5B	; 91
     fbc:	ff 4f       	sbci	r31, 0xFF	; 255
     fbe:	e4 91       	lpm	r30, Z
     fc0:	f0 e0       	ldi	r31, 0x00	; 0
     fc2:	ee 0f       	add	r30, r30
     fc4:	ff 1f       	adc	r31, r31
     fc6:	e7 54       	subi	r30, 0x47	; 71
     fc8:	ff 4f       	sbci	r31, 0xFF	; 255
     fca:	45 91       	lpm	r20, Z+
     fcc:	54 91       	lpm	r21, Z
     fce:	50 93 6d 02 	sts	0x026D, r21	; 0x80026d <timer0_pin_port+0x1>
     fd2:	40 93 6c 02 	sts	0x026C, r20	; 0x80026c <timer0_pin_port>
     fd6:	f9 01       	movw	r30, r18
     fd8:	ef 56       	subi	r30, 0x6F	; 111
     fda:	ff 4f       	sbci	r31, 0xFF	; 255
     fdc:	e4 91       	lpm	r30, Z
     fde:	e0 93 6b 02 	sts	0x026B, r30	; 0x80026b <timer0_pin_mask>
     fe2:	1d 82       	std	Y+5, r1	; 0x05
     fe4:	ea c1       	rjmp	.+980    	; 0x13ba <_Z4tonehjm+0x4d0>
     fe6:	10 92 80 00 	sts	0x0080, r1	; 0x800080 <__DATA_REGION_ORIGIN__+0x20>
     fea:	10 92 81 00 	sts	0x0081, r1	; 0x800081 <__DATA_REGION_ORIGIN__+0x21>
     fee:	90 91 81 00 	lds	r25, 0x0081	; 0x800081 <__DATA_REGION_ORIGIN__+0x21>
     ff2:	98 60       	ori	r25, 0x08	; 8
     ff4:	90 93 81 00 	sts	0x0081, r25	; 0x800081 <__DATA_REGION_ORIGIN__+0x21>
     ff8:	90 91 81 00 	lds	r25, 0x0081	; 0x800081 <__DATA_REGION_ORIGIN__+0x21>
     ffc:	91 60       	ori	r25, 0x01	; 1
     ffe:	90 93 81 00 	sts	0x0081, r25	; 0x800081 <__DATA_REGION_ORIGIN__+0x21>
    1002:	28 2f       	mov	r18, r24
    1004:	30 e0       	ldi	r19, 0x00	; 0
    1006:	f9 01       	movw	r30, r18
    1008:	eb 55       	subi	r30, 0x5B	; 91
    100a:	ff 4f       	sbci	r31, 0xFF	; 255
    100c:	e4 91       	lpm	r30, Z
    100e:	f0 e0       	ldi	r31, 0x00	; 0
    1010:	ee 0f       	add	r30, r30
    1012:	ff 1f       	adc	r31, r31
    1014:	e7 54       	subi	r30, 0x47	; 71
    1016:	ff 4f       	sbci	r31, 0xFF	; 255
    1018:	45 91       	lpm	r20, Z+
    101a:	54 91       	lpm	r21, Z
    101c:	50 93 66 02 	sts	0x0266, r21	; 0x800266 <timer1_pin_port+0x1>
    1020:	40 93 65 02 	sts	0x0265, r20	; 0x800265 <timer1_pin_port>
    1024:	f9 01       	movw	r30, r18
    1026:	ef 56       	subi	r30, 0x6F	; 111
    1028:	ff 4f       	sbci	r31, 0xFF	; 255
    102a:	e4 91       	lpm	r30, Z
    102c:	e0 93 64 02 	sts	0x0264, r30	; 0x800264 <timer1_pin_mask>
    1030:	61 e0       	ldi	r22, 0x01	; 1
    1032:	0e 94 70 0c 	call	0x18e0	; 0x18e0 <pinMode>
    1036:	21 e0       	ldi	r18, 0x01	; 1
    1038:	2d 83       	std	Y+5, r18	; 0x05
    103a:	89 c0       	rjmp	.+274    	; 0x114e <_Z4tonehjm+0x264>
    103c:	2d 81       	ldd	r18, Y+5	; 0x05
    103e:	27 fd       	sbrc	r18, 7
    1040:	c0 c1       	rjmp	.+896    	; 0x13c2 <_Z4tonehjm+0x4d8>
    1042:	61 e0       	ldi	r22, 0x01	; 1
    1044:	0e 94 70 0c 	call	0x18e0	; 0x18e0 <pinMode>
    1048:	8d 81       	ldd	r24, Y+5	; 0x05
    104a:	8d 7f       	andi	r24, 0xFD	; 253
    104c:	09 f0       	breq	.+2      	; 0x1050 <_Z4tonehjm+0x166>
    104e:	7f c0       	rjmp	.+254    	; 0x114e <_Z4tonehjm+0x264>
    1050:	48 01       	movw	r8, r16
    1052:	a1 2c       	mov	r10, r1
    1054:	b1 2c       	mov	r11, r1
    1056:	60 e0       	ldi	r22, 0x00	; 0
    1058:	72 e1       	ldi	r23, 0x12	; 18
    105a:	8a e7       	ldi	r24, 0x7A	; 122
    105c:	90 e0       	ldi	r25, 0x00	; 0
    105e:	a5 01       	movw	r20, r10
    1060:	94 01       	movw	r18, r8
    1062:	0e 94 12 0d 	call	0x1a24	; 0x1a24 <__divmodsi4>
    1066:	29 83       	std	Y+1, r18	; 0x01
    1068:	3a 83       	std	Y+2, r19	; 0x02
    106a:	4b 83       	std	Y+3, r20	; 0x03
    106c:	5c 83       	std	Y+4, r21	; 0x04
    106e:	69 01       	movw	r12, r18
    1070:	7a 01       	movw	r14, r20
    1072:	81 e0       	ldi	r24, 0x01	; 1
    1074:	c8 1a       	sub	r12, r24
    1076:	d1 08       	sbc	r13, r1
    1078:	e1 08       	sbc	r14, r1
    107a:	f1 08       	sbc	r15, r1
    107c:	9f ef       	ldi	r25, 0xFF	; 255
    107e:	c9 16       	cp	r12, r25
    1080:	d1 04       	cpc	r13, r1
    1082:	e1 04       	cpc	r14, r1
    1084:	f1 04       	cpc	r15, r1
    1086:	09 f0       	breq	.+2      	; 0x108a <_Z4tonehjm+0x1a0>
    1088:	08 f4       	brcc	.+2      	; 0x108c <_Z4tonehjm+0x1a2>
    108a:	4e c0       	rjmp	.+156    	; 0x1128 <_Z4tonehjm+0x23e>
    108c:	60 e4       	ldi	r22, 0x40	; 64
    108e:	72 e4       	ldi	r23, 0x42	; 66
    1090:	8f e0       	ldi	r24, 0x0F	; 15
    1092:	90 e0       	ldi	r25, 0x00	; 0
    1094:	a5 01       	movw	r20, r10
    1096:	94 01       	movw	r18, r8
    1098:	0e 94 12 0d 	call	0x1a24	; 0x1a24 <__divmodsi4>
    109c:	69 01       	movw	r12, r18
    109e:	7a 01       	movw	r14, r20
    10a0:	81 e0       	ldi	r24, 0x01	; 1
    10a2:	c8 1a       	sub	r12, r24
    10a4:	d1 08       	sbc	r13, r1
    10a6:	e1 08       	sbc	r14, r1
    10a8:	f1 08       	sbc	r15, r1
    10aa:	9d 81       	ldd	r25, Y+5	; 0x05
    10ac:	92 30       	cpi	r25, 0x02	; 2
    10ae:	09 f5       	brne	.+66     	; 0x10f2 <_Z4tonehjm+0x208>
    10b0:	2f ef       	ldi	r18, 0xFF	; 255
    10b2:	c2 16       	cp	r12, r18
    10b4:	d1 04       	cpc	r13, r1
    10b6:	e1 04       	cpc	r14, r1
    10b8:	f1 04       	cpc	r15, r1
    10ba:	09 f0       	breq	.+2      	; 0x10be <_Z4tonehjm+0x1d4>
    10bc:	08 f4       	brcc	.+2      	; 0x10c0 <_Z4tonehjm+0x1d6>
    10be:	44 c1       	rjmp	.+648    	; 0x1348 <_Z4tonehjm+0x45e>
    10c0:	60 e9       	ldi	r22, 0x90	; 144
    10c2:	70 ed       	ldi	r23, 0xD0	; 208
    10c4:	83 e0       	ldi	r24, 0x03	; 3
    10c6:	90 e0       	ldi	r25, 0x00	; 0
    10c8:	a5 01       	movw	r20, r10
    10ca:	94 01       	movw	r18, r8
    10cc:	0e 94 12 0d 	call	0x1a24	; 0x1a24 <__divmodsi4>
    10d0:	69 01       	movw	r12, r18
    10d2:	7a 01       	movw	r14, r20
    10d4:	81 e0       	ldi	r24, 0x01	; 1
    10d6:	c8 1a       	sub	r12, r24
    10d8:	d1 08       	sbc	r13, r1
    10da:	e1 08       	sbc	r14, r1
    10dc:	f1 08       	sbc	r15, r1
    10de:	9f ef       	ldi	r25, 0xFF	; 255
    10e0:	c9 16       	cp	r12, r25
    10e2:	d1 04       	cpc	r13, r1
    10e4:	e1 04       	cpc	r14, r1
    10e6:	f1 04       	cpc	r15, r1
    10e8:	11 f0       	breq	.+4      	; 0x10ee <_Z4tonehjm+0x204>
    10ea:	08 f0       	brcs	.+2      	; 0x10ee <_Z4tonehjm+0x204>
    10ec:	ba c0       	rjmp	.+372    	; 0x1262 <_Z4tonehjm+0x378>
    10ee:	83 e0       	ldi	r24, 0x03	; 3
    10f0:	27 c0       	rjmp	.+78     	; 0x1140 <_Z4tonehjm+0x256>
    10f2:	2f ef       	ldi	r18, 0xFF	; 255
    10f4:	c2 16       	cp	r12, r18
    10f6:	d1 04       	cpc	r13, r1
    10f8:	e1 04       	cpc	r14, r1
    10fa:	f1 04       	cpc	r15, r1
    10fc:	b9 f0       	breq	.+46     	; 0x112c <_Z4tonehjm+0x242>
    10fe:	b0 f0       	brcs	.+44     	; 0x112c <_Z4tonehjm+0x242>
    1100:	68 e4       	ldi	r22, 0x48	; 72
    1102:	78 ee       	ldi	r23, 0xE8	; 232
    1104:	81 e0       	ldi	r24, 0x01	; 1
    1106:	90 e0       	ldi	r25, 0x00	; 0
    1108:	a5 01       	movw	r20, r10
    110a:	94 01       	movw	r18, r8
    110c:	0e 94 12 0d 	call	0x1a24	; 0x1a24 <__divmodsi4>
    1110:	69 01       	movw	r12, r18
    1112:	7a 01       	movw	r14, r20
    1114:	81 e0       	ldi	r24, 0x01	; 1
    1116:	c8 1a       	sub	r12, r24
    1118:	d1 08       	sbc	r13, r1
    111a:	e1 08       	sbc	r14, r1
    111c:	f1 08       	sbc	r15, r1
    111e:	9d 81       	ldd	r25, Y+5	; 0x05
    1120:	99 23       	and	r25, r25
    1122:	09 f4       	brne	.+2      	; 0x1126 <_Z4tonehjm+0x23c>
    1124:	13 c1       	rjmp	.+550    	; 0x134c <_Z4tonehjm+0x462>
    1126:	dc c0       	rjmp	.+440    	; 0x12e0 <_Z4tonehjm+0x3f6>
    1128:	81 e0       	ldi	r24, 0x01	; 1
    112a:	01 c0       	rjmp	.+2      	; 0x112e <_Z4tonehjm+0x244>
    112c:	82 e0       	ldi	r24, 0x02	; 2
    112e:	9d 81       	ldd	r25, Y+5	; 0x05
    1130:	91 11       	cpse	r25, r1
    1132:	06 c0       	rjmp	.+12     	; 0x1140 <_Z4tonehjm+0x256>
    1134:	95 b5       	in	r25, 0x25	; 37
    1136:	98 7f       	andi	r25, 0xF8	; 248
    1138:	89 2b       	or	r24, r25
    113a:	85 bd       	out	0x25, r24	; 37
    113c:	44 c0       	rjmp	.+136    	; 0x11c6 <_Z4tonehjm+0x2dc>
    113e:	85 e0       	ldi	r24, 0x05	; 5
    1140:	90 91 b1 00 	lds	r25, 0x00B1	; 0x8000b1 <__DATA_REGION_ORIGIN__+0x51>
    1144:	98 7f       	andi	r25, 0xF8	; 248
    1146:	89 2b       	or	r24, r25
    1148:	80 93 b1 00 	sts	0x00B1, r24	; 0x8000b1 <__DATA_REGION_ORIGIN__+0x51>
    114c:	3c c0       	rjmp	.+120    	; 0x11c6 <_Z4tonehjm+0x2dc>
    114e:	48 01       	movw	r8, r16
    1150:	a1 2c       	mov	r10, r1
    1152:	b1 2c       	mov	r11, r1
    1154:	60 e0       	ldi	r22, 0x00	; 0
    1156:	72 e1       	ldi	r23, 0x12	; 18
    1158:	8a e7       	ldi	r24, 0x7A	; 122
    115a:	90 e0       	ldi	r25, 0x00	; 0
    115c:	a5 01       	movw	r20, r10
    115e:	94 01       	movw	r18, r8
    1160:	0e 94 12 0d 	call	0x1a24	; 0x1a24 <__divmodsi4>
    1164:	69 01       	movw	r12, r18
    1166:	7a 01       	movw	r14, r20
    1168:	81 e0       	ldi	r24, 0x01	; 1
    116a:	c8 1a       	sub	r12, r24
    116c:	d1 08       	sbc	r13, r1
    116e:	e1 08       	sbc	r14, r1
    1170:	f1 08       	sbc	r15, r1
    1172:	c1 14       	cp	r12, r1
    1174:	d1 04       	cpc	r13, r1
    1176:	91 e0       	ldi	r25, 0x01	; 1
    1178:	e9 06       	cpc	r14, r25
    117a:	f1 04       	cpc	r15, r1
    117c:	88 f0       	brcs	.+34     	; 0x11a0 <_Z4tonehjm+0x2b6>
    117e:	68 e4       	ldi	r22, 0x48	; 72
    1180:	78 ee       	ldi	r23, 0xE8	; 232
    1182:	81 e0       	ldi	r24, 0x01	; 1
    1184:	90 e0       	ldi	r25, 0x00	; 0
    1186:	a5 01       	movw	r20, r10
    1188:	94 01       	movw	r18, r8
    118a:	0e 94 12 0d 	call	0x1a24	; 0x1a24 <__divmodsi4>
    118e:	69 01       	movw	r12, r18
    1190:	7a 01       	movw	r14, r20
    1192:	81 e0       	ldi	r24, 0x01	; 1
    1194:	c8 1a       	sub	r12, r24
    1196:	d1 08       	sbc	r13, r1
    1198:	e1 08       	sbc	r14, r1
    119a:	f1 08       	sbc	r15, r1
    119c:	83 e0       	ldi	r24, 0x03	; 3
    119e:	01 c0       	rjmp	.+2      	; 0x11a2 <_Z4tonehjm+0x2b8>
    11a0:	81 e0       	ldi	r24, 0x01	; 1
    11a2:	9d 81       	ldd	r25, Y+5	; 0x05
    11a4:	91 30       	cpi	r25, 0x01	; 1
    11a6:	79 f4       	brne	.+30     	; 0x11c6 <_Z4tonehjm+0x2dc>
    11a8:	90 91 81 00 	lds	r25, 0x0081	; 0x800081 <__DATA_REGION_ORIGIN__+0x21>
    11ac:	98 7f       	andi	r25, 0xF8	; 248
    11ae:	89 2b       	or	r24, r25
    11b0:	80 93 81 00 	sts	0x0081, r24	; 0x800081 <__DATA_REGION_ORIGIN__+0x21>
    11b4:	41 14       	cp	r4, r1
    11b6:	51 04       	cpc	r5, r1
    11b8:	61 04       	cpc	r6, r1
    11ba:	71 04       	cpc	r7, r1
    11bc:	49 f4       	brne	.+18     	; 0x11d0 <_Z4tonehjm+0x2e6>
    11be:	2f ef       	ldi	r18, 0xFF	; 255
    11c0:	3f ef       	ldi	r19, 0xFF	; 255
    11c2:	a9 01       	movw	r20, r18
    11c4:	2c c0       	rjmp	.+88     	; 0x121e <_Z4tonehjm+0x334>
    11c6:	41 14       	cp	r4, r1
    11c8:	51 04       	cpc	r5, r1
    11ca:	61 04       	cpc	r6, r1
    11cc:	71 04       	cpc	r7, r1
    11ce:	71 f0       	breq	.+28     	; 0x11ec <_Z4tonehjm+0x302>
    11d0:	d8 01       	movw	r26, r16
    11d2:	aa 0f       	add	r26, r26
    11d4:	bb 1f       	adc	r27, r27
    11d6:	a3 01       	movw	r20, r6
    11d8:	92 01       	movw	r18, r4
    11da:	0e 94 37 0d 	call	0x1a6e	; 0x1a6e <__muluhisi3>
    11de:	28 ee       	ldi	r18, 0xE8	; 232
    11e0:	33 e0       	ldi	r19, 0x03	; 3
    11e2:	40 e0       	ldi	r20, 0x00	; 0
    11e4:	50 e0       	ldi	r21, 0x00	; 0
    11e6:	0e 94 f0 0c 	call	0x19e0	; 0x19e0 <__udivmodsi4>
    11ea:	03 c0       	rjmp	.+6      	; 0x11f2 <_Z4tonehjm+0x308>
    11ec:	2f ef       	ldi	r18, 0xFF	; 255
    11ee:	3f ef       	ldi	r19, 0xFF	; 255
    11f0:	a9 01       	movw	r20, r18
    11f2:	8d 81       	ldd	r24, Y+5	; 0x05
    11f4:	81 30       	cpi	r24, 0x01	; 1
    11f6:	99 f0       	breq	.+38     	; 0x121e <_Z4tonehjm+0x334>
    11f8:	82 30       	cpi	r24, 0x02	; 2
    11fa:	19 f1       	breq	.+70     	; 0x1242 <_Z4tonehjm+0x358>
    11fc:	81 11       	cpse	r24, r1
    11fe:	e1 c0       	rjmp	.+450    	; 0x13c2 <_Z4tonehjm+0x4d8>
    1200:	c7 bc       	out	0x27, r12	; 39
    1202:	20 93 6e 02 	sts	0x026E, r18	; 0x80026e <timer0_toggle_count>
    1206:	30 93 6f 02 	sts	0x026F, r19	; 0x80026f <timer0_toggle_count+0x1>
    120a:	40 93 70 02 	sts	0x0270, r20	; 0x800270 <timer0_toggle_count+0x2>
    120e:	50 93 71 02 	sts	0x0271, r21	; 0x800271 <timer0_toggle_count+0x3>
    1212:	80 91 6e 00 	lds	r24, 0x006E	; 0x80006e <__DATA_REGION_ORIGIN__+0xe>
    1216:	82 60       	ori	r24, 0x02	; 2
    1218:	80 93 6e 00 	sts	0x006E, r24	; 0x80006e <__DATA_REGION_ORIGIN__+0xe>
    121c:	d2 c0       	rjmp	.+420    	; 0x13c2 <_Z4tonehjm+0x4d8>
    121e:	d0 92 89 00 	sts	0x0089, r13	; 0x800089 <__DATA_REGION_ORIGIN__+0x29>
    1222:	c0 92 88 00 	sts	0x0088, r12	; 0x800088 <__DATA_REGION_ORIGIN__+0x28>
    1226:	20 93 67 02 	sts	0x0267, r18	; 0x800267 <timer1_toggle_count>
    122a:	30 93 68 02 	sts	0x0268, r19	; 0x800268 <timer1_toggle_count+0x1>
    122e:	40 93 69 02 	sts	0x0269, r20	; 0x800269 <timer1_toggle_count+0x2>
    1232:	50 93 6a 02 	sts	0x026A, r21	; 0x80026a <timer1_toggle_count+0x3>
    1236:	80 91 6f 00 	lds	r24, 0x006F	; 0x80006f <__DATA_REGION_ORIGIN__+0xf>
    123a:	82 60       	ori	r24, 0x02	; 2
    123c:	80 93 6f 00 	sts	0x006F, r24	; 0x80006f <__DATA_REGION_ORIGIN__+0xf>
    1240:	c0 c0       	rjmp	.+384    	; 0x13c2 <_Z4tonehjm+0x4d8>
    1242:	c0 92 b3 00 	sts	0x00B3, r12	; 0x8000b3 <__DATA_REGION_ORIGIN__+0x53>
    1246:	20 93 60 02 	sts	0x0260, r18	; 0x800260 <timer2_toggle_count>
    124a:	30 93 61 02 	sts	0x0261, r19	; 0x800261 <timer2_toggle_count+0x1>
    124e:	40 93 62 02 	sts	0x0262, r20	; 0x800262 <timer2_toggle_count+0x2>
    1252:	50 93 63 02 	sts	0x0263, r21	; 0x800263 <timer2_toggle_count+0x3>
    1256:	80 91 70 00 	lds	r24, 0x0070	; 0x800070 <__DATA_REGION_ORIGIN__+0x10>
    125a:	82 60       	ori	r24, 0x02	; 2
    125c:	80 93 70 00 	sts	0x0070, r24	; 0x800070 <__DATA_REGION_ORIGIN__+0x10>
    1260:	b0 c0       	rjmp	.+352    	; 0x13c2 <_Z4tonehjm+0x4d8>
    1262:	68 e4       	ldi	r22, 0x48	; 72
    1264:	78 ee       	ldi	r23, 0xE8	; 232
    1266:	81 e0       	ldi	r24, 0x01	; 1
    1268:	90 e0       	ldi	r25, 0x00	; 0
    126a:	a5 01       	movw	r20, r10
    126c:	94 01       	movw	r18, r8
    126e:	0e 94 12 0d 	call	0x1a24	; 0x1a24 <__divmodsi4>
    1272:	69 01       	movw	r12, r18
    1274:	7a 01       	movw	r14, r20
    1276:	91 e0       	ldi	r25, 0x01	; 1
    1278:	c9 1a       	sub	r12, r25
    127a:	d1 08       	sbc	r13, r1
    127c:	e1 08       	sbc	r14, r1
    127e:	f1 08       	sbc	r15, r1
    1280:	2f ef       	ldi	r18, 0xFF	; 255
    1282:	c2 16       	cp	r12, r18
    1284:	d1 04       	cpc	r13, r1
    1286:	e1 04       	cpc	r14, r1
    1288:	f1 04       	cpc	r15, r1
    128a:	41 f1       	breq	.+80     	; 0x12dc <_Z4tonehjm+0x3f2>
    128c:	38 f1       	brcs	.+78     	; 0x12dc <_Z4tonehjm+0x3f2>
    128e:	64 e2       	ldi	r22, 0x24	; 36
    1290:	74 ef       	ldi	r23, 0xF4	; 244
    1292:	80 e0       	ldi	r24, 0x00	; 0
    1294:	90 e0       	ldi	r25, 0x00	; 0
    1296:	a5 01       	movw	r20, r10
    1298:	94 01       	movw	r18, r8
    129a:	0e 94 12 0d 	call	0x1a24	; 0x1a24 <__divmodsi4>
    129e:	69 01       	movw	r12, r18
    12a0:	7a 01       	movw	r14, r20
    12a2:	81 e0       	ldi	r24, 0x01	; 1
    12a4:	c8 1a       	sub	r12, r24
    12a6:	d1 08       	sbc	r13, r1
    12a8:	e1 08       	sbc	r14, r1
    12aa:	f1 08       	sbc	r15, r1
    12ac:	9f ef       	ldi	r25, 0xFF	; 255
    12ae:	c9 16       	cp	r12, r25
    12b0:	d1 04       	cpc	r13, r1
    12b2:	e1 04       	cpc	r14, r1
    12b4:	f1 04       	cpc	r15, r1
    12b6:	09 f0       	breq	.+2      	; 0x12ba <_Z4tonehjm+0x3d0>
    12b8:	08 f4       	brcc	.+2      	; 0x12bc <_Z4tonehjm+0x3d2>
    12ba:	41 cf       	rjmp	.-382    	; 0x113e <_Z4tonehjm+0x254>
    12bc:	62 e1       	ldi	r22, 0x12	; 18
    12be:	7a e7       	ldi	r23, 0x7A	; 122
    12c0:	80 e0       	ldi	r24, 0x00	; 0
    12c2:	90 e0       	ldi	r25, 0x00	; 0
    12c4:	a5 01       	movw	r20, r10
    12c6:	94 01       	movw	r18, r8
    12c8:	0e 94 12 0d 	call	0x1a24	; 0x1a24 <__divmodsi4>
    12cc:	69 01       	movw	r12, r18
    12ce:	7a 01       	movw	r14, r20
    12d0:	81 e0       	ldi	r24, 0x01	; 1
    12d2:	c8 1a       	sub	r12, r24
    12d4:	d1 08       	sbc	r13, r1
    12d6:	e1 08       	sbc	r14, r1
    12d8:	f1 08       	sbc	r15, r1
    12da:	19 c0       	rjmp	.+50     	; 0x130e <_Z4tonehjm+0x424>
    12dc:	84 e0       	ldi	r24, 0x04	; 4
    12de:	30 cf       	rjmp	.-416    	; 0x1140 <_Z4tonehjm+0x256>
    12e0:	2f ef       	ldi	r18, 0xFF	; 255
    12e2:	c2 16       	cp	r12, r18
    12e4:	d1 04       	cpc	r13, r1
    12e6:	e1 04       	cpc	r14, r1
    12e8:	f1 04       	cpc	r15, r1
    12ea:	09 f0       	breq	.+2      	; 0x12ee <_Z4tonehjm+0x404>
    12ec:	08 f4       	brcc	.+2      	; 0x12f0 <_Z4tonehjm+0x406>
    12ee:	63 c0       	rjmp	.+198    	; 0x13b6 <_Z4tonehjm+0x4cc>
    12f0:	62 e1       	ldi	r22, 0x12	; 18
    12f2:	7a e7       	ldi	r23, 0x7A	; 122
    12f4:	80 e0       	ldi	r24, 0x00	; 0
    12f6:	90 e0       	ldi	r25, 0x00	; 0
    12f8:	a5 01       	movw	r20, r10
    12fa:	94 01       	movw	r18, r8
    12fc:	0e 94 12 0d 	call	0x1a24	; 0x1a24 <__divmodsi4>
    1300:	69 01       	movw	r12, r18
    1302:	7a 01       	movw	r14, r20
    1304:	91 e0       	ldi	r25, 0x01	; 1
    1306:	c9 1a       	sub	r12, r25
    1308:	d1 08       	sbc	r13, r1
    130a:	e1 08       	sbc	r14, r1
    130c:	f1 08       	sbc	r15, r1
    130e:	8f ef       	ldi	r24, 0xFF	; 255
    1310:	c8 16       	cp	r12, r24
    1312:	d1 04       	cpc	r13, r1
    1314:	e1 04       	cpc	r14, r1
    1316:	f1 04       	cpc	r15, r1
    1318:	a9 f0       	breq	.+42     	; 0x1344 <_Z4tonehjm+0x45a>
    131a:	a0 f0       	brcs	.+40     	; 0x1344 <_Z4tonehjm+0x45a>
    131c:	89 81       	ldd	r24, Y+1	; 0x01
    131e:	9a 81       	ldd	r25, Y+2	; 0x02
    1320:	ab 81       	ldd	r26, Y+3	; 0x03
    1322:	bc 81       	ldd	r27, Y+4	; 0x04
    1324:	2a e0       	ldi	r18, 0x0A	; 10
    1326:	b5 95       	asr	r27
    1328:	a7 95       	ror	r26
    132a:	97 95       	ror	r25
    132c:	87 95       	ror	r24
    132e:	2a 95       	dec	r18
    1330:	d1 f7       	brne	.-12     	; 0x1326 <_Z4tonehjm+0x43c>
    1332:	6c 01       	movw	r12, r24
    1334:	7d 01       	movw	r14, r26
    1336:	21 e0       	ldi	r18, 0x01	; 1
    1338:	c2 1a       	sub	r12, r18
    133a:	d1 08       	sbc	r13, r1
    133c:	e1 08       	sbc	r14, r1
    133e:	f1 08       	sbc	r15, r1
    1340:	87 e0       	ldi	r24, 0x07	; 7
    1342:	fe ce       	rjmp	.-516    	; 0x1140 <_Z4tonehjm+0x256>
    1344:	86 e0       	ldi	r24, 0x06	; 6
    1346:	fc ce       	rjmp	.-520    	; 0x1140 <_Z4tonehjm+0x256>
    1348:	82 e0       	ldi	r24, 0x02	; 2
    134a:	fa ce       	rjmp	.-524    	; 0x1140 <_Z4tonehjm+0x256>
    134c:	8f ef       	ldi	r24, 0xFF	; 255
    134e:	c8 16       	cp	r12, r24
    1350:	d1 04       	cpc	r13, r1
    1352:	e1 04       	cpc	r14, r1
    1354:	f1 04       	cpc	r15, r1
    1356:	69 f1       	breq	.+90     	; 0x13b2 <_Z4tonehjm+0x4c8>
    1358:	60 f1       	brcs	.+88     	; 0x13b2 <_Z4tonehjm+0x4c8>
    135a:	62 e1       	ldi	r22, 0x12	; 18
    135c:	7a e7       	ldi	r23, 0x7A	; 122
    135e:	80 e0       	ldi	r24, 0x00	; 0
    1360:	90 e0       	ldi	r25, 0x00	; 0
    1362:	a5 01       	movw	r20, r10
    1364:	94 01       	movw	r18, r8
    1366:	0e 94 12 0d 	call	0x1a24	; 0x1a24 <__divmodsi4>
    136a:	69 01       	movw	r12, r18
    136c:	7a 01       	movw	r14, r20
    136e:	91 e0       	ldi	r25, 0x01	; 1
    1370:	c9 1a       	sub	r12, r25
    1372:	d1 08       	sbc	r13, r1
    1374:	e1 08       	sbc	r14, r1
    1376:	f1 08       	sbc	r15, r1
    1378:	2f ef       	ldi	r18, 0xFF	; 255
    137a:	c2 16       	cp	r12, r18
    137c:	d1 04       	cpc	r13, r1
    137e:	e1 04       	cpc	r14, r1
    1380:	f1 04       	cpc	r15, r1
    1382:	a9 f0       	breq	.+42     	; 0x13ae <_Z4tonehjm+0x4c4>
    1384:	a0 f0       	brcs	.+40     	; 0x13ae <_Z4tonehjm+0x4c4>
    1386:	89 81       	ldd	r24, Y+1	; 0x01
    1388:	9a 81       	ldd	r25, Y+2	; 0x02
    138a:	ab 81       	ldd	r26, Y+3	; 0x03
    138c:	bc 81       	ldd	r27, Y+4	; 0x04
    138e:	3a e0       	ldi	r19, 0x0A	; 10
    1390:	b5 95       	asr	r27
    1392:	a7 95       	ror	r26
    1394:	97 95       	ror	r25
    1396:	87 95       	ror	r24
    1398:	3a 95       	dec	r19
    139a:	d1 f7       	brne	.-12     	; 0x1390 <_Z4tonehjm+0x4a6>
    139c:	6c 01       	movw	r12, r24
    139e:	7d 01       	movw	r14, r26
    13a0:	21 e0       	ldi	r18, 0x01	; 1
    13a2:	c2 1a       	sub	r12, r18
    13a4:	d1 08       	sbc	r13, r1
    13a6:	e1 08       	sbc	r14, r1
    13a8:	f1 08       	sbc	r15, r1
    13aa:	85 e0       	ldi	r24, 0x05	; 5
    13ac:	c3 ce       	rjmp	.-634    	; 0x1134 <_Z4tonehjm+0x24a>
    13ae:	84 e0       	ldi	r24, 0x04	; 4
    13b0:	c1 ce       	rjmp	.-638    	; 0x1134 <_Z4tonehjm+0x24a>
    13b2:	83 e0       	ldi	r24, 0x03	; 3
    13b4:	bf ce       	rjmp	.-642    	; 0x1134 <_Z4tonehjm+0x24a>
    13b6:	84 e0       	ldi	r24, 0x04	; 4
    13b8:	ba ce       	rjmp	.-652    	; 0x112e <_Z4tonehjm+0x244>
    13ba:	61 e0       	ldi	r22, 0x01	; 1
    13bc:	0e 94 70 0c 	call	0x18e0	; 0x18e0 <pinMode>
    13c0:	47 ce       	rjmp	.-882    	; 0x1050 <_Z4tonehjm+0x166>
    13c2:	0f 90       	pop	r0
    13c4:	0f 90       	pop	r0
    13c6:	0f 90       	pop	r0
    13c8:	0f 90       	pop	r0
    13ca:	0f 90       	pop	r0
    13cc:	df 91       	pop	r29
    13ce:	cf 91       	pop	r28
    13d0:	1f 91       	pop	r17
    13d2:	0f 91       	pop	r16
    13d4:	ff 90       	pop	r15
    13d6:	ef 90       	pop	r14
    13d8:	df 90       	pop	r13
    13da:	cf 90       	pop	r12
    13dc:	bf 90       	pop	r11
    13de:	af 90       	pop	r10
    13e0:	9f 90       	pop	r9
    13e2:	8f 90       	pop	r8
    13e4:	7f 90       	pop	r7
    13e6:	6f 90       	pop	r6
    13e8:	5f 90       	pop	r5
    13ea:	4f 90       	pop	r4
    13ec:	08 95       	ret

000013ee <_Z12disableTimerh>:
    13ee:	81 30       	cpi	r24, 0x01	; 1
    13f0:	39 f0       	breq	.+14     	; 0x1400 <_Z12disableTimerh+0x12>
    13f2:	18 f0       	brcs	.+6      	; 0x13fa <_Z12disableTimerh+0xc>
    13f4:	82 30       	cpi	r24, 0x02	; 2
    13f6:	51 f0       	breq	.+20     	; 0x140c <_Z12disableTimerh+0x1e>
    13f8:	08 95       	ret
    13fa:	10 92 6e 00 	sts	0x006E, r1	; 0x80006e <__DATA_REGION_ORIGIN__+0xe>
    13fe:	08 95       	ret
    1400:	80 91 6f 00 	lds	r24, 0x006F	; 0x80006f <__DATA_REGION_ORIGIN__+0xf>
    1404:	8d 7f       	andi	r24, 0xFD	; 253
    1406:	80 93 6f 00 	sts	0x006F, r24	; 0x80006f <__DATA_REGION_ORIGIN__+0xf>
    140a:	08 95       	ret
    140c:	80 91 70 00 	lds	r24, 0x0070	; 0x800070 <__DATA_REGION_ORIGIN__+0x10>
    1410:	8d 7f       	andi	r24, 0xFD	; 253
    1412:	80 93 70 00 	sts	0x0070, r24	; 0x800070 <__DATA_REGION_ORIGIN__+0x10>
    1416:	81 e0       	ldi	r24, 0x01	; 1
    1418:	80 93 b0 00 	sts	0x00B0, r24	; 0x8000b0 <__DATA_REGION_ORIGIN__+0x50>
    141c:	80 91 b1 00 	lds	r24, 0x00B1	; 0x8000b1 <__DATA_REGION_ORIGIN__+0x51>
    1420:	88 7f       	andi	r24, 0xF8	; 248
    1422:	84 60       	ori	r24, 0x04	; 4
    1424:	80 93 b1 00 	sts	0x00B1, r24	; 0x8000b1 <__DATA_REGION_ORIGIN__+0x51>
    1428:	10 92 b3 00 	sts	0x00B3, r1	; 0x8000b3 <__DATA_REGION_ORIGIN__+0x53>
    142c:	08 95       	ret

0000142e <_Z6noToneh>:
    142e:	cf 93       	push	r28
    1430:	c8 2f       	mov	r28, r24
    1432:	80 91 08 01 	lds	r24, 0x0108	; 0x800108 <_ZL9tone_pins>
    1436:	c8 13       	cpse	r28, r24
    1438:	07 c0       	rjmp	.+14     	; 0x1448 <_Z6noToneh+0x1a>
    143a:	ec e7       	ldi	r30, 0x7C	; 124
    143c:	f0 e0       	ldi	r31, 0x00	; 0
    143e:	84 91       	lpm	r24, Z
    1440:	9f ef       	ldi	r25, 0xFF	; 255
    1442:	90 93 08 01 	sts	0x0108, r25	; 0x800108 <_ZL9tone_pins>
    1446:	01 c0       	rjmp	.+2      	; 0x144a <_Z6noToneh+0x1c>
    1448:	8f ef       	ldi	r24, 0xFF	; 255
    144a:	0e 94 f7 09 	call	0x13ee	; 0x13ee <_Z12disableTimerh>
    144e:	60 e0       	ldi	r22, 0x00	; 0
    1450:	8c 2f       	mov	r24, r28
    1452:	cf 91       	pop	r28
    1454:	0c 94 ac 0c 	jmp	0x1958	; 0x1958 <digitalWrite>

00001458 <__vector_7>:
    1458:	1f 92       	push	r1
    145a:	0f 92       	push	r0
    145c:	0f b6       	in	r0, 0x3f	; 63
    145e:	0f 92       	push	r0
    1460:	11 24       	eor	r1, r1
    1462:	2f 93       	push	r18
    1464:	3f 93       	push	r19
    1466:	4f 93       	push	r20
    1468:	5f 93       	push	r21
    146a:	6f 93       	push	r22
    146c:	7f 93       	push	r23
    146e:	8f 93       	push	r24
    1470:	9f 93       	push	r25
    1472:	af 93       	push	r26
    1474:	bf 93       	push	r27
    1476:	ef 93       	push	r30
    1478:	ff 93       	push	r31
    147a:	80 91 60 02 	lds	r24, 0x0260	; 0x800260 <timer2_toggle_count>
    147e:	90 91 61 02 	lds	r25, 0x0261	; 0x800261 <timer2_toggle_count+0x1>
    1482:	a0 91 62 02 	lds	r26, 0x0262	; 0x800262 <timer2_toggle_count+0x2>
    1486:	b0 91 63 02 	lds	r27, 0x0263	; 0x800263 <timer2_toggle_count+0x3>
    148a:	89 2b       	or	r24, r25
    148c:	8a 2b       	or	r24, r26
    148e:	8b 2b       	or	r24, r27
    1490:	51 f1       	breq	.+84     	; 0x14e6 <__vector_7+0x8e>
    1492:	90 91 5d 02 	lds	r25, 0x025D	; 0x80025d <timer2_pin_mask>
    1496:	e0 91 5e 02 	lds	r30, 0x025E	; 0x80025e <timer2_pin_port>
    149a:	f0 91 5f 02 	lds	r31, 0x025F	; 0x80025f <timer2_pin_port+0x1>
    149e:	80 81       	ld	r24, Z
    14a0:	89 27       	eor	r24, r25
    14a2:	80 83       	st	Z, r24
    14a4:	80 91 60 02 	lds	r24, 0x0260	; 0x800260 <timer2_toggle_count>
    14a8:	90 91 61 02 	lds	r25, 0x0261	; 0x800261 <timer2_toggle_count+0x1>
    14ac:	a0 91 62 02 	lds	r26, 0x0262	; 0x800262 <timer2_toggle_count+0x2>
    14b0:	b0 91 63 02 	lds	r27, 0x0263	; 0x800263 <timer2_toggle_count+0x3>
    14b4:	18 16       	cp	r1, r24
    14b6:	19 06       	cpc	r1, r25
    14b8:	1a 06       	cpc	r1, r26
    14ba:	1b 06       	cpc	r1, r27
    14bc:	c4 f4       	brge	.+48     	; 0x14ee <__vector_7+0x96>
    14be:	80 91 60 02 	lds	r24, 0x0260	; 0x800260 <timer2_toggle_count>
    14c2:	90 91 61 02 	lds	r25, 0x0261	; 0x800261 <timer2_toggle_count+0x1>
    14c6:	a0 91 62 02 	lds	r26, 0x0262	; 0x800262 <timer2_toggle_count+0x2>
    14ca:	b0 91 63 02 	lds	r27, 0x0263	; 0x800263 <timer2_toggle_count+0x3>
    14ce:	01 97       	sbiw	r24, 0x01	; 1
    14d0:	a1 09       	sbc	r26, r1
    14d2:	b1 09       	sbc	r27, r1
    14d4:	80 93 60 02 	sts	0x0260, r24	; 0x800260 <timer2_toggle_count>
    14d8:	90 93 61 02 	sts	0x0261, r25	; 0x800261 <timer2_toggle_count+0x1>
    14dc:	a0 93 62 02 	sts	0x0262, r26	; 0x800262 <timer2_toggle_count+0x2>
    14e0:	b0 93 63 02 	sts	0x0263, r27	; 0x800263 <timer2_toggle_count+0x3>
    14e4:	04 c0       	rjmp	.+8      	; 0x14ee <__vector_7+0x96>
    14e6:	80 91 08 01 	lds	r24, 0x0108	; 0x800108 <_ZL9tone_pins>
    14ea:	0e 94 17 0a 	call	0x142e	; 0x142e <_Z6noToneh>
    14ee:	ff 91       	pop	r31
    14f0:	ef 91       	pop	r30
    14f2:	bf 91       	pop	r27
    14f4:	af 91       	pop	r26
    14f6:	9f 91       	pop	r25
    14f8:	8f 91       	pop	r24
    14fa:	7f 91       	pop	r23
    14fc:	6f 91       	pop	r22
    14fe:	5f 91       	pop	r21
    1500:	4f 91       	pop	r20
    1502:	3f 91       	pop	r19
    1504:	2f 91       	pop	r18
    1506:	0f 90       	pop	r0
    1508:	0f be       	out	0x3f, r0	; 63
    150a:	0f 90       	pop	r0
    150c:	1f 90       	pop	r1
    150e:	18 95       	reti

00001510 <nothing>:
    1510:	08 95       	ret

00001512 <attachInterrupt>:
    1512:	82 30       	cpi	r24, 0x02	; 2
    1514:	e8 f4       	brcc	.+58     	; 0x1550 <attachInterrupt+0x3e>
    1516:	e8 2f       	mov	r30, r24
    1518:	f0 e0       	ldi	r31, 0x00	; 0
    151a:	ee 0f       	add	r30, r30
    151c:	ff 1f       	adc	r31, r31
    151e:	e7 5f       	subi	r30, 0xF7	; 247
    1520:	fe 4f       	sbci	r31, 0xFE	; 254
    1522:	71 83       	std	Z+1, r23	; 0x01
    1524:	60 83       	st	Z, r22
    1526:	81 30       	cpi	r24, 0x01	; 1
    1528:	41 f0       	breq	.+16     	; 0x153a <attachInterrupt+0x28>
    152a:	80 91 69 00 	lds	r24, 0x0069	; 0x800069 <__DATA_REGION_ORIGIN__+0x9>
    152e:	8c 7f       	andi	r24, 0xFC	; 252
    1530:	48 2b       	or	r20, r24
    1532:	40 93 69 00 	sts	0x0069, r20	; 0x800069 <__DATA_REGION_ORIGIN__+0x9>
    1536:	e8 9a       	sbi	0x1d, 0	; 29
    1538:	08 95       	ret
    153a:	80 91 69 00 	lds	r24, 0x0069	; 0x800069 <__DATA_REGION_ORIGIN__+0x9>
    153e:	83 7f       	andi	r24, 0xF3	; 243
    1540:	44 0f       	add	r20, r20
    1542:	55 1f       	adc	r21, r21
    1544:	44 0f       	add	r20, r20
    1546:	55 1f       	adc	r21, r21
    1548:	48 2b       	or	r20, r24
    154a:	40 93 69 00 	sts	0x0069, r20	; 0x800069 <__DATA_REGION_ORIGIN__+0x9>
    154e:	e9 9a       	sbi	0x1d, 1	; 29
    1550:	08 95       	ret

00001552 <__vector_1>:
    1552:	1f 92       	push	r1
    1554:	0f 92       	push	r0
    1556:	0f b6       	in	r0, 0x3f	; 63
    1558:	0f 92       	push	r0
    155a:	11 24       	eor	r1, r1
    155c:	2f 93       	push	r18
    155e:	3f 93       	push	r19
    1560:	4f 93       	push	r20
    1562:	5f 93       	push	r21
    1564:	6f 93       	push	r22
    1566:	7f 93       	push	r23
    1568:	8f 93       	push	r24
    156a:	9f 93       	push	r25
    156c:	af 93       	push	r26
    156e:	bf 93       	push	r27
    1570:	ef 93       	push	r30
    1572:	ff 93       	push	r31
    1574:	e0 91 09 01 	lds	r30, 0x0109	; 0x800109 <intFunc>
    1578:	f0 91 0a 01 	lds	r31, 0x010A	; 0x80010a <intFunc+0x1>
    157c:	09 95       	icall
    157e:	ff 91       	pop	r31
    1580:	ef 91       	pop	r30
    1582:	bf 91       	pop	r27
    1584:	af 91       	pop	r26
    1586:	9f 91       	pop	r25
    1588:	8f 91       	pop	r24
    158a:	7f 91       	pop	r23
    158c:	6f 91       	pop	r22
    158e:	5f 91       	pop	r21
    1590:	4f 91       	pop	r20
    1592:	3f 91       	pop	r19
    1594:	2f 91       	pop	r18
    1596:	0f 90       	pop	r0
    1598:	0f be       	out	0x3f, r0	; 63
    159a:	0f 90       	pop	r0
    159c:	1f 90       	pop	r1
    159e:	18 95       	reti

000015a0 <__vector_2>:
    15a0:	1f 92       	push	r1
    15a2:	0f 92       	push	r0
    15a4:	0f b6       	in	r0, 0x3f	; 63
    15a6:	0f 92       	push	r0
    15a8:	11 24       	eor	r1, r1
    15aa:	2f 93       	push	r18
    15ac:	3f 93       	push	r19
    15ae:	4f 93       	push	r20
    15b0:	5f 93       	push	r21
    15b2:	6f 93       	push	r22
    15b4:	7f 93       	push	r23
    15b6:	8f 93       	push	r24
    15b8:	9f 93       	push	r25
    15ba:	af 93       	push	r26
    15bc:	bf 93       	push	r27
    15be:	ef 93       	push	r30
    15c0:	ff 93       	push	r31
    15c2:	e0 91 0b 01 	lds	r30, 0x010B	; 0x80010b <intFunc+0x2>
    15c6:	f0 91 0c 01 	lds	r31, 0x010C	; 0x80010c <intFunc+0x3>
    15ca:	09 95       	icall
    15cc:	ff 91       	pop	r31
    15ce:	ef 91       	pop	r30
    15d0:	bf 91       	pop	r27
    15d2:	af 91       	pop	r26
    15d4:	9f 91       	pop	r25
    15d6:	8f 91       	pop	r24
    15d8:	7f 91       	pop	r23
    15da:	6f 91       	pop	r22
    15dc:	5f 91       	pop	r21
    15de:	4f 91       	pop	r20
    15e0:	3f 91       	pop	r19
    15e2:	2f 91       	pop	r18
    15e4:	0f 90       	pop	r0
    15e6:	0f be       	out	0x3f, r0	; 63
    15e8:	0f 90       	pop	r0
    15ea:	1f 90       	pop	r1
    15ec:	18 95       	reti

000015ee <__vector_16>:
    15ee:	1f 92       	push	r1
    15f0:	0f 92       	push	r0
    15f2:	0f b6       	in	r0, 0x3f	; 63
    15f4:	0f 92       	push	r0
    15f6:	11 24       	eor	r1, r1
    15f8:	2f 93       	push	r18
    15fa:	3f 93       	push	r19
    15fc:	8f 93       	push	r24
    15fe:	9f 93       	push	r25
    1600:	af 93       	push	r26
    1602:	bf 93       	push	r27
    1604:	80 91 73 02 	lds	r24, 0x0273	; 0x800273 <timer0_millis>
    1608:	90 91 74 02 	lds	r25, 0x0274	; 0x800274 <timer0_millis+0x1>
    160c:	a0 91 75 02 	lds	r26, 0x0275	; 0x800275 <timer0_millis+0x2>
    1610:	b0 91 76 02 	lds	r27, 0x0276	; 0x800276 <timer0_millis+0x3>
    1614:	30 91 72 02 	lds	r19, 0x0272	; 0x800272 <timer0_fract>
    1618:	23 e0       	ldi	r18, 0x03	; 3
    161a:	23 0f       	add	r18, r19
    161c:	2d 37       	cpi	r18, 0x7D	; 125
    161e:	20 f4       	brcc	.+8      	; 0x1628 <__vector_16+0x3a>
    1620:	01 96       	adiw	r24, 0x01	; 1
    1622:	a1 1d       	adc	r26, r1
    1624:	b1 1d       	adc	r27, r1
    1626:	05 c0       	rjmp	.+10     	; 0x1632 <__vector_16+0x44>
    1628:	26 e8       	ldi	r18, 0x86	; 134
    162a:	23 0f       	add	r18, r19
    162c:	02 96       	adiw	r24, 0x02	; 2
    162e:	a1 1d       	adc	r26, r1
    1630:	b1 1d       	adc	r27, r1
    1632:	20 93 72 02 	sts	0x0272, r18	; 0x800272 <timer0_fract>
    1636:	80 93 73 02 	sts	0x0273, r24	; 0x800273 <timer0_millis>
    163a:	90 93 74 02 	sts	0x0274, r25	; 0x800274 <timer0_millis+0x1>
    163e:	a0 93 75 02 	sts	0x0275, r26	; 0x800275 <timer0_millis+0x2>
    1642:	b0 93 76 02 	sts	0x0276, r27	; 0x800276 <timer0_millis+0x3>
    1646:	80 91 77 02 	lds	r24, 0x0277	; 0x800277 <timer0_overflow_count>
    164a:	90 91 78 02 	lds	r25, 0x0278	; 0x800278 <timer0_overflow_count+0x1>
    164e:	a0 91 79 02 	lds	r26, 0x0279	; 0x800279 <timer0_overflow_count+0x2>
    1652:	b0 91 7a 02 	lds	r27, 0x027A	; 0x80027a <timer0_overflow_count+0x3>
    1656:	01 96       	adiw	r24, 0x01	; 1
    1658:	a1 1d       	adc	r26, r1
    165a:	b1 1d       	adc	r27, r1
    165c:	80 93 77 02 	sts	0x0277, r24	; 0x800277 <timer0_overflow_count>
    1660:	90 93 78 02 	sts	0x0278, r25	; 0x800278 <timer0_overflow_count+0x1>
    1664:	a0 93 79 02 	sts	0x0279, r26	; 0x800279 <timer0_overflow_count+0x2>
    1668:	b0 93 7a 02 	sts	0x027A, r27	; 0x80027a <timer0_overflow_count+0x3>
    166c:	bf 91       	pop	r27
    166e:	af 91       	pop	r26
    1670:	9f 91       	pop	r25
    1672:	8f 91       	pop	r24
    1674:	3f 91       	pop	r19
    1676:	2f 91       	pop	r18
    1678:	0f 90       	pop	r0
    167a:	0f be       	out	0x3f, r0	; 63
    167c:	0f 90       	pop	r0
    167e:	1f 90       	pop	r1
    1680:	18 95       	reti

00001682 <micros>:
    1682:	3f b7       	in	r19, 0x3f	; 63
    1684:	f8 94       	cli
    1686:	80 91 77 02 	lds	r24, 0x0277	; 0x800277 <timer0_overflow_count>
    168a:	90 91 78 02 	lds	r25, 0x0278	; 0x800278 <timer0_overflow_count+0x1>
    168e:	a0 91 79 02 	lds	r26, 0x0279	; 0x800279 <timer0_overflow_count+0x2>
    1692:	b0 91 7a 02 	lds	r27, 0x027A	; 0x80027a <timer0_overflow_count+0x3>
    1696:	26 b5       	in	r18, 0x26	; 38
    1698:	a8 9b       	sbis	0x15, 0	; 21
    169a:	05 c0       	rjmp	.+10     	; 0x16a6 <micros+0x24>
    169c:	2f 3f       	cpi	r18, 0xFF	; 255
    169e:	19 f0       	breq	.+6      	; 0x16a6 <micros+0x24>
    16a0:	01 96       	adiw	r24, 0x01	; 1
    16a2:	a1 1d       	adc	r26, r1
    16a4:	b1 1d       	adc	r27, r1
    16a6:	3f bf       	out	0x3f, r19	; 63
    16a8:	ba 2f       	mov	r27, r26
    16aa:	a9 2f       	mov	r26, r25
    16ac:	98 2f       	mov	r25, r24
    16ae:	88 27       	eor	r24, r24
    16b0:	82 0f       	add	r24, r18
    16b2:	91 1d       	adc	r25, r1
    16b4:	a1 1d       	adc	r26, r1
    16b6:	b1 1d       	adc	r27, r1
    16b8:	bc 01       	movw	r22, r24
    16ba:	cd 01       	movw	r24, r26
    16bc:	42 e0       	ldi	r20, 0x02	; 2
    16be:	66 0f       	add	r22, r22
    16c0:	77 1f       	adc	r23, r23
    16c2:	88 1f       	adc	r24, r24
    16c4:	99 1f       	adc	r25, r25
    16c6:	4a 95       	dec	r20
    16c8:	d1 f7       	brne	.-12     	; 0x16be <micros+0x3c>
    16ca:	08 95       	ret

000016cc <delay>:
    16cc:	8f 92       	push	r8
    16ce:	9f 92       	push	r9
    16d0:	af 92       	push	r10
    16d2:	bf 92       	push	r11
    16d4:	cf 92       	push	r12
    16d6:	df 92       	push	r13
    16d8:	ef 92       	push	r14
    16da:	ff 92       	push	r15
    16dc:	6b 01       	movw	r12, r22
    16de:	7c 01       	movw	r14, r24
    16e0:	0e 94 41 0b 	call	0x1682	; 0x1682 <micros>
    16e4:	4b 01       	movw	r8, r22
    16e6:	5c 01       	movw	r10, r24
    16e8:	c1 14       	cp	r12, r1
    16ea:	d1 04       	cpc	r13, r1
    16ec:	e1 04       	cpc	r14, r1
    16ee:	f1 04       	cpc	r15, r1
    16f0:	01 f1       	breq	.+64     	; 0x1732 <delay+0x66>
    16f2:	0e 94 db 0c 	call	0x19b6	; 0x19b6 <yield>
    16f6:	0e 94 41 0b 	call	0x1682	; 0x1682 <micros>
    16fa:	dc 01       	movw	r26, r24
    16fc:	cb 01       	movw	r24, r22
    16fe:	88 19       	sub	r24, r8
    1700:	99 09       	sbc	r25, r9
    1702:	aa 09       	sbc	r26, r10
    1704:	bb 09       	sbc	r27, r11
    1706:	88 3e       	cpi	r24, 0xE8	; 232
    1708:	93 40       	sbci	r25, 0x03	; 3
    170a:	a1 05       	cpc	r26, r1
    170c:	b1 05       	cpc	r27, r1
    170e:	60 f3       	brcs	.-40     	; 0x16e8 <delay+0x1c>
    1710:	21 e0       	ldi	r18, 0x01	; 1
    1712:	c2 1a       	sub	r12, r18
    1714:	d1 08       	sbc	r13, r1
    1716:	e1 08       	sbc	r14, r1
    1718:	f1 08       	sbc	r15, r1
    171a:	88 ee       	ldi	r24, 0xE8	; 232
    171c:	88 0e       	add	r8, r24
    171e:	83 e0       	ldi	r24, 0x03	; 3
    1720:	98 1e       	adc	r9, r24
    1722:	a1 1c       	adc	r10, r1
    1724:	b1 1c       	adc	r11, r1
    1726:	c1 14       	cp	r12, r1
    1728:	d1 04       	cpc	r13, r1
    172a:	e1 04       	cpc	r14, r1
    172c:	f1 04       	cpc	r15, r1
    172e:	19 f7       	brne	.-58     	; 0x16f6 <delay+0x2a>
    1730:	db cf       	rjmp	.-74     	; 0x16e8 <delay+0x1c>
    1732:	ff 90       	pop	r15
    1734:	ef 90       	pop	r14
    1736:	df 90       	pop	r13
    1738:	cf 90       	pop	r12
    173a:	bf 90       	pop	r11
    173c:	af 90       	pop	r10
    173e:	9f 90       	pop	r9
    1740:	8f 90       	pop	r8
    1742:	08 95       	ret

00001744 <delayMicroseconds>:
    1744:	82 30       	cpi	r24, 0x02	; 2
    1746:	91 05       	cpc	r25, r1
    1748:	38 f0       	brcs	.+14     	; 0x1758 <delayMicroseconds+0x14>
    174a:	88 0f       	add	r24, r24
    174c:	99 1f       	adc	r25, r25
    174e:	88 0f       	add	r24, r24
    1750:	99 1f       	adc	r25, r25
    1752:	05 97       	sbiw	r24, 0x05	; 5
    1754:	01 97       	sbiw	r24, 0x01	; 1
    1756:	f1 f7       	brne	.-4      	; 0x1754 <delayMicroseconds+0x10>
    1758:	08 95       	ret

0000175a <init>:
    175a:	78 94       	sei
    175c:	84 b5       	in	r24, 0x24	; 36
    175e:	82 60       	ori	r24, 0x02	; 2
    1760:	84 bd       	out	0x24, r24	; 36
    1762:	84 b5       	in	r24, 0x24	; 36
    1764:	81 60       	ori	r24, 0x01	; 1
    1766:	84 bd       	out	0x24, r24	; 36
    1768:	85 b5       	in	r24, 0x25	; 37
    176a:	82 60       	ori	r24, 0x02	; 2
    176c:	85 bd       	out	0x25, r24	; 37
    176e:	85 b5       	in	r24, 0x25	; 37
    1770:	81 60       	ori	r24, 0x01	; 1
    1772:	85 bd       	out	0x25, r24	; 37
    1774:	ee e6       	ldi	r30, 0x6E	; 110
    1776:	f0 e0       	ldi	r31, 0x00	; 0
    1778:	80 81       	ld	r24, Z
    177a:	81 60       	ori	r24, 0x01	; 1
    177c:	80 83       	st	Z, r24
    177e:	e1 e8       	ldi	r30, 0x81	; 129
    1780:	f0 e0       	ldi	r31, 0x00	; 0
    1782:	10 82       	st	Z, r1
    1784:	80 81       	ld	r24, Z
    1786:	82 60       	ori	r24, 0x02	; 2
    1788:	80 83       	st	Z, r24
    178a:	80 81       	ld	r24, Z
    178c:	81 60       	ori	r24, 0x01	; 1
    178e:	80 83       	st	Z, r24
    1790:	e0 e8       	ldi	r30, 0x80	; 128
    1792:	f0 e0       	ldi	r31, 0x00	; 0
    1794:	80 81       	ld	r24, Z
    1796:	81 60       	ori	r24, 0x01	; 1
    1798:	80 83       	st	Z, r24
    179a:	e1 eb       	ldi	r30, 0xB1	; 177
    179c:	f0 e0       	ldi	r31, 0x00	; 0
    179e:	80 81       	ld	r24, Z
    17a0:	84 60       	ori	r24, 0x04	; 4
    17a2:	80 83       	st	Z, r24
    17a4:	e0 eb       	ldi	r30, 0xB0	; 176
    17a6:	f0 e0       	ldi	r31, 0x00	; 0
    17a8:	80 81       	ld	r24, Z
    17aa:	81 60       	ori	r24, 0x01	; 1
    17ac:	80 83       	st	Z, r24
    17ae:	ea e7       	ldi	r30, 0x7A	; 122
    17b0:	f0 e0       	ldi	r31, 0x00	; 0
    17b2:	80 81       	ld	r24, Z
    17b4:	84 60       	ori	r24, 0x04	; 4
    17b6:	80 83       	st	Z, r24
    17b8:	80 81       	ld	r24, Z
    17ba:	82 60       	ori	r24, 0x02	; 2
    17bc:	80 83       	st	Z, r24
    17be:	80 81       	ld	r24, Z
    17c0:	81 60       	ori	r24, 0x01	; 1
    17c2:	80 83       	st	Z, r24
    17c4:	80 81       	ld	r24, Z
    17c6:	80 68       	ori	r24, 0x80	; 128
    17c8:	80 83       	st	Z, r24
    17ca:	10 92 c1 00 	sts	0x00C1, r1	; 0x8000c1 <__DATA_REGION_ORIGIN__+0x61>
    17ce:	08 95       	ret

000017d0 <analogWrite>:
    17d0:	1f 93       	push	r17
    17d2:	cf 93       	push	r28
    17d4:	df 93       	push	r29
    17d6:	18 2f       	mov	r17, r24
    17d8:	eb 01       	movw	r28, r22
    17da:	61 e0       	ldi	r22, 0x01	; 1
    17dc:	0e 94 70 0c 	call	0x18e0	; 0x18e0 <pinMode>
    17e0:	20 97       	sbiw	r28, 0x00	; 0
    17e2:	11 f4       	brne	.+4      	; 0x17e8 <analogWrite+0x18>
    17e4:	60 e0       	ldi	r22, 0x00	; 0
    17e6:	04 c0       	rjmp	.+8      	; 0x17f0 <analogWrite+0x20>
    17e8:	cf 3f       	cpi	r28, 0xFF	; 255
    17ea:	d1 05       	cpc	r29, r1
    17ec:	39 f4       	brne	.+14     	; 0x17fc <analogWrite+0x2c>
    17ee:	61 e0       	ldi	r22, 0x01	; 1
    17f0:	81 2f       	mov	r24, r17
    17f2:	df 91       	pop	r29
    17f4:	cf 91       	pop	r28
    17f6:	1f 91       	pop	r17
    17f8:	0c 94 ac 0c 	jmp	0x1958	; 0x1958 <digitalWrite>
    17fc:	e1 2f       	mov	r30, r17
    17fe:	f0 e0       	ldi	r31, 0x00	; 0
    1800:	e3 58       	subi	r30, 0x83	; 131
    1802:	ff 4f       	sbci	r31, 0xFF	; 255
    1804:	e4 91       	lpm	r30, Z
    1806:	e3 30       	cpi	r30, 0x03	; 3
    1808:	f9 f0       	breq	.+62     	; 0x1848 <analogWrite+0x78>
    180a:	48 f4       	brcc	.+18     	; 0x181e <analogWrite+0x4e>
    180c:	e1 30       	cpi	r30, 0x01	; 1
    180e:	b9 f0       	breq	.+46     	; 0x183e <analogWrite+0x6e>
    1810:	e2 30       	cpi	r30, 0x02	; 2
    1812:	a1 f5       	brne	.+104    	; 0x187c <analogWrite+0xac>
    1814:	84 b5       	in	r24, 0x24	; 36
    1816:	80 62       	ori	r24, 0x20	; 32
    1818:	84 bd       	out	0x24, r24	; 36
    181a:	c8 bd       	out	0x28, r28	; 40
    181c:	34 c0       	rjmp	.+104    	; 0x1886 <analogWrite+0xb6>
    181e:	e7 30       	cpi	r30, 0x07	; 7
    1820:	e9 f0       	breq	.+58     	; 0x185c <analogWrite+0x8c>
    1822:	e8 30       	cpi	r30, 0x08	; 8
    1824:	19 f1       	breq	.+70     	; 0x186c <analogWrite+0x9c>
    1826:	e4 30       	cpi	r30, 0x04	; 4
    1828:	49 f5       	brne	.+82     	; 0x187c <analogWrite+0xac>
    182a:	80 91 80 00 	lds	r24, 0x0080	; 0x800080 <__DATA_REGION_ORIGIN__+0x20>
    182e:	80 62       	ori	r24, 0x20	; 32
    1830:	80 93 80 00 	sts	0x0080, r24	; 0x800080 <__DATA_REGION_ORIGIN__+0x20>
    1834:	d0 93 8b 00 	sts	0x008B, r29	; 0x80008b <__DATA_REGION_ORIGIN__+0x2b>
    1838:	c0 93 8a 00 	sts	0x008A, r28	; 0x80008a <__DATA_REGION_ORIGIN__+0x2a>
    183c:	24 c0       	rjmp	.+72     	; 0x1886 <analogWrite+0xb6>
    183e:	84 b5       	in	r24, 0x24	; 36
    1840:	80 68       	ori	r24, 0x80	; 128
    1842:	84 bd       	out	0x24, r24	; 36
    1844:	c7 bd       	out	0x27, r28	; 39
    1846:	1f c0       	rjmp	.+62     	; 0x1886 <analogWrite+0xb6>
    1848:	80 91 80 00 	lds	r24, 0x0080	; 0x800080 <__DATA_REGION_ORIGIN__+0x20>
    184c:	80 68       	ori	r24, 0x80	; 128
    184e:	80 93 80 00 	sts	0x0080, r24	; 0x800080 <__DATA_REGION_ORIGIN__+0x20>
    1852:	d0 93 89 00 	sts	0x0089, r29	; 0x800089 <__DATA_REGION_ORIGIN__+0x29>
    1856:	c0 93 88 00 	sts	0x0088, r28	; 0x800088 <__DATA_REGION_ORIGIN__+0x28>
    185a:	15 c0       	rjmp	.+42     	; 0x1886 <analogWrite+0xb6>
    185c:	80 91 b0 00 	lds	r24, 0x00B0	; 0x8000b0 <__DATA_REGION_ORIGIN__+0x50>
    1860:	80 68       	ori	r24, 0x80	; 128
    1862:	80 93 b0 00 	sts	0x00B0, r24	; 0x8000b0 <__DATA_REGION_ORIGIN__+0x50>
    1866:	c0 93 b3 00 	sts	0x00B3, r28	; 0x8000b3 <__DATA_REGION_ORIGIN__+0x53>
    186a:	0d c0       	rjmp	.+26     	; 0x1886 <analogWrite+0xb6>
    186c:	80 91 b0 00 	lds	r24, 0x00B0	; 0x8000b0 <__DATA_REGION_ORIGIN__+0x50>
    1870:	80 62       	ori	r24, 0x20	; 32
    1872:	80 93 b0 00 	sts	0x00B0, r24	; 0x8000b0 <__DATA_REGION_ORIGIN__+0x50>
    1876:	c0 93 b4 00 	sts	0x00B4, r28	; 0x8000b4 <__DATA_REGION_ORIGIN__+0x54>
    187a:	05 c0       	rjmp	.+10     	; 0x1886 <analogWrite+0xb6>
    187c:	c0 38       	cpi	r28, 0x80	; 128
    187e:	d1 05       	cpc	r29, r1
    1880:	0c f0       	brlt	.+2      	; 0x1884 <analogWrite+0xb4>
    1882:	b5 cf       	rjmp	.-150    	; 0x17ee <analogWrite+0x1e>
    1884:	af cf       	rjmp	.-162    	; 0x17e4 <analogWrite+0x14>
    1886:	df 91       	pop	r29
    1888:	cf 91       	pop	r28
    188a:	1f 91       	pop	r17
    188c:	08 95       	ret

0000188e <turnOffPWM>:
    188e:	83 30       	cpi	r24, 0x03	; 3
    1890:	81 f0       	breq	.+32     	; 0x18b2 <turnOffPWM+0x24>
    1892:	28 f4       	brcc	.+10     	; 0x189e <turnOffPWM+0x10>
    1894:	81 30       	cpi	r24, 0x01	; 1
    1896:	99 f0       	breq	.+38     	; 0x18be <turnOffPWM+0x30>
    1898:	82 30       	cpi	r24, 0x02	; 2
    189a:	a1 f0       	breq	.+40     	; 0x18c4 <turnOffPWM+0x36>
    189c:	08 95       	ret
    189e:	87 30       	cpi	r24, 0x07	; 7
    18a0:	a9 f0       	breq	.+42     	; 0x18cc <turnOffPWM+0x3e>
    18a2:	88 30       	cpi	r24, 0x08	; 8
    18a4:	b9 f0       	breq	.+46     	; 0x18d4 <turnOffPWM+0x46>
    18a6:	84 30       	cpi	r24, 0x04	; 4
    18a8:	d1 f4       	brne	.+52     	; 0x18de <turnOffPWM+0x50>
    18aa:	80 91 80 00 	lds	r24, 0x0080	; 0x800080 <__DATA_REGION_ORIGIN__+0x20>
    18ae:	8f 7d       	andi	r24, 0xDF	; 223
    18b0:	03 c0       	rjmp	.+6      	; 0x18b8 <turnOffPWM+0x2a>
    18b2:	80 91 80 00 	lds	r24, 0x0080	; 0x800080 <__DATA_REGION_ORIGIN__+0x20>
    18b6:	8f 77       	andi	r24, 0x7F	; 127
    18b8:	80 93 80 00 	sts	0x0080, r24	; 0x800080 <__DATA_REGION_ORIGIN__+0x20>
    18bc:	08 95       	ret
    18be:	84 b5       	in	r24, 0x24	; 36
    18c0:	8f 77       	andi	r24, 0x7F	; 127
    18c2:	02 c0       	rjmp	.+4      	; 0x18c8 <turnOffPWM+0x3a>
    18c4:	84 b5       	in	r24, 0x24	; 36
    18c6:	8f 7d       	andi	r24, 0xDF	; 223
    18c8:	84 bd       	out	0x24, r24	; 36
    18ca:	08 95       	ret
    18cc:	80 91 b0 00 	lds	r24, 0x00B0	; 0x8000b0 <__DATA_REGION_ORIGIN__+0x50>
    18d0:	8f 77       	andi	r24, 0x7F	; 127
    18d2:	03 c0       	rjmp	.+6      	; 0x18da <turnOffPWM+0x4c>
    18d4:	80 91 b0 00 	lds	r24, 0x00B0	; 0x8000b0 <__DATA_REGION_ORIGIN__+0x50>
    18d8:	8f 7d       	andi	r24, 0xDF	; 223
    18da:	80 93 b0 00 	sts	0x00B0, r24	; 0x8000b0 <__DATA_REGION_ORIGIN__+0x50>
    18de:	08 95       	ret

000018e0 <pinMode>:
    18e0:	cf 93       	push	r28
    18e2:	df 93       	push	r29
    18e4:	90 e0       	ldi	r25, 0x00	; 0
    18e6:	fc 01       	movw	r30, r24
    18e8:	ef 56       	subi	r30, 0x6F	; 111
    18ea:	ff 4f       	sbci	r31, 0xFF	; 255
    18ec:	24 91       	lpm	r18, Z
    18ee:	fc 01       	movw	r30, r24
    18f0:	eb 55       	subi	r30, 0x5B	; 91
    18f2:	ff 4f       	sbci	r31, 0xFF	; 255
    18f4:	84 91       	lpm	r24, Z
    18f6:	88 23       	and	r24, r24
    18f8:	61 f1       	breq	.+88     	; 0x1952 <pinMode+0x72>
    18fa:	90 e0       	ldi	r25, 0x00	; 0
    18fc:	88 0f       	add	r24, r24
    18fe:	99 1f       	adc	r25, r25
    1900:	fc 01       	movw	r30, r24
    1902:	ed 53       	subi	r30, 0x3D	; 61
    1904:	ff 4f       	sbci	r31, 0xFF	; 255
    1906:	c5 91       	lpm	r28, Z+
    1908:	d4 91       	lpm	r29, Z
    190a:	fc 01       	movw	r30, r24
    190c:	e7 54       	subi	r30, 0x47	; 71
    190e:	ff 4f       	sbci	r31, 0xFF	; 255
    1910:	a5 91       	lpm	r26, Z+
    1912:	b4 91       	lpm	r27, Z
    1914:	61 11       	cpse	r22, r1
    1916:	09 c0       	rjmp	.+18     	; 0x192a <pinMode+0x4a>
    1918:	9f b7       	in	r25, 0x3f	; 63
    191a:	f8 94       	cli
    191c:	88 81       	ld	r24, Y
    191e:	20 95       	com	r18
    1920:	82 23       	and	r24, r18
    1922:	88 83       	st	Y, r24
    1924:	ec 91       	ld	r30, X
    1926:	2e 23       	and	r18, r30
    1928:	0b c0       	rjmp	.+22     	; 0x1940 <pinMode+0x60>
    192a:	62 30       	cpi	r22, 0x02	; 2
    192c:	61 f4       	brne	.+24     	; 0x1946 <pinMode+0x66>
    192e:	9f b7       	in	r25, 0x3f	; 63
    1930:	f8 94       	cli
    1932:	88 81       	ld	r24, Y
    1934:	32 2f       	mov	r19, r18
    1936:	30 95       	com	r19
    1938:	83 23       	and	r24, r19
    193a:	88 83       	st	Y, r24
    193c:	ec 91       	ld	r30, X
    193e:	2e 2b       	or	r18, r30
    1940:	2c 93       	st	X, r18
    1942:	9f bf       	out	0x3f, r25	; 63
    1944:	06 c0       	rjmp	.+12     	; 0x1952 <pinMode+0x72>
    1946:	8f b7       	in	r24, 0x3f	; 63
    1948:	f8 94       	cli
    194a:	e8 81       	ld	r30, Y
    194c:	2e 2b       	or	r18, r30
    194e:	28 83       	st	Y, r18
    1950:	8f bf       	out	0x3f, r24	; 63
    1952:	df 91       	pop	r29
    1954:	cf 91       	pop	r28
    1956:	08 95       	ret

00001958 <digitalWrite>:
    1958:	1f 93       	push	r17
    195a:	cf 93       	push	r28
    195c:	df 93       	push	r29
    195e:	28 2f       	mov	r18, r24
    1960:	30 e0       	ldi	r19, 0x00	; 0
    1962:	f9 01       	movw	r30, r18
    1964:	e3 58       	subi	r30, 0x83	; 131
    1966:	ff 4f       	sbci	r31, 0xFF	; 255
    1968:	84 91       	lpm	r24, Z
    196a:	f9 01       	movw	r30, r18
    196c:	ef 56       	subi	r30, 0x6F	; 111
    196e:	ff 4f       	sbci	r31, 0xFF	; 255
    1970:	d4 91       	lpm	r29, Z
    1972:	f9 01       	movw	r30, r18
    1974:	eb 55       	subi	r30, 0x5B	; 91
    1976:	ff 4f       	sbci	r31, 0xFF	; 255
    1978:	c4 91       	lpm	r28, Z
    197a:	cc 23       	and	r28, r28
    197c:	c1 f0       	breq	.+48     	; 0x19ae <digitalWrite+0x56>
    197e:	16 2f       	mov	r17, r22
    1980:	81 11       	cpse	r24, r1
    1982:	0e 94 47 0c 	call	0x188e	; 0x188e <turnOffPWM>
    1986:	ec 2f       	mov	r30, r28
    1988:	f0 e0       	ldi	r31, 0x00	; 0
    198a:	ee 0f       	add	r30, r30
    198c:	ff 1f       	adc	r31, r31
    198e:	e7 54       	subi	r30, 0x47	; 71
    1990:	ff 4f       	sbci	r31, 0xFF	; 255
    1992:	a5 91       	lpm	r26, Z+
    1994:	b4 91       	lpm	r27, Z
    1996:	9f b7       	in	r25, 0x3f	; 63
    1998:	f8 94       	cli
    199a:	11 11       	cpse	r17, r1
    199c:	04 c0       	rjmp	.+8      	; 0x19a6 <digitalWrite+0x4e>
    199e:	8c 91       	ld	r24, X
    19a0:	d0 95       	com	r29
    19a2:	d8 23       	and	r29, r24
    19a4:	02 c0       	rjmp	.+4      	; 0x19aa <digitalWrite+0x52>
    19a6:	ec 91       	ld	r30, X
    19a8:	de 2b       	or	r29, r30
    19aa:	dc 93       	st	X, r29
    19ac:	9f bf       	out	0x3f, r25	; 63
    19ae:	df 91       	pop	r29
    19b0:	cf 91       	pop	r28
    19b2:	1f 91       	pop	r17
    19b4:	08 95       	ret

000019b6 <yield>:
    19b6:	08 95       	ret

000019b8 <__divmodhi4>:
    19b8:	97 fb       	bst	r25, 7
    19ba:	07 2e       	mov	r0, r23
    19bc:	16 f4       	brtc	.+4      	; 0x19c2 <__divmodhi4+0xa>
    19be:	00 94       	com	r0
    19c0:	07 d0       	rcall	.+14     	; 0x19d0 <__divmodhi4_neg1>
    19c2:	77 fd       	sbrc	r23, 7
    19c4:	09 d0       	rcall	.+18     	; 0x19d8 <__divmodhi4_neg2>
    19c6:	0e 94 42 0d 	call	0x1a84	; 0x1a84 <__udivmodhi4>
    19ca:	07 fc       	sbrc	r0, 7
    19cc:	05 d0       	rcall	.+10     	; 0x19d8 <__divmodhi4_neg2>
    19ce:	3e f4       	brtc	.+14     	; 0x19de <__divmodhi4_exit>

000019d0 <__divmodhi4_neg1>:
    19d0:	90 95       	com	r25
    19d2:	81 95       	neg	r24
    19d4:	9f 4f       	sbci	r25, 0xFF	; 255
    19d6:	08 95       	ret

000019d8 <__divmodhi4_neg2>:
    19d8:	70 95       	com	r23
    19da:	61 95       	neg	r22
    19dc:	7f 4f       	sbci	r23, 0xFF	; 255

000019de <__divmodhi4_exit>:
    19de:	08 95       	ret

000019e0 <__udivmodsi4>:
    19e0:	a1 e2       	ldi	r26, 0x21	; 33
    19e2:	1a 2e       	mov	r1, r26
    19e4:	aa 1b       	sub	r26, r26
    19e6:	bb 1b       	sub	r27, r27
    19e8:	fd 01       	movw	r30, r26
    19ea:	0d c0       	rjmp	.+26     	; 0x1a06 <__udivmodsi4_ep>

000019ec <__udivmodsi4_loop>:
    19ec:	aa 1f       	adc	r26, r26
    19ee:	bb 1f       	adc	r27, r27
    19f0:	ee 1f       	adc	r30, r30
    19f2:	ff 1f       	adc	r31, r31
    19f4:	a2 17       	cp	r26, r18
    19f6:	b3 07       	cpc	r27, r19
    19f8:	e4 07       	cpc	r30, r20
    19fa:	f5 07       	cpc	r31, r21
    19fc:	20 f0       	brcs	.+8      	; 0x1a06 <__udivmodsi4_ep>
    19fe:	a2 1b       	sub	r26, r18
    1a00:	b3 0b       	sbc	r27, r19
    1a02:	e4 0b       	sbc	r30, r20
    1a04:	f5 0b       	sbc	r31, r21

00001a06 <__udivmodsi4_ep>:
    1a06:	66 1f       	adc	r22, r22
    1a08:	77 1f       	adc	r23, r23
    1a0a:	88 1f       	adc	r24, r24
    1a0c:	99 1f       	adc	r25, r25
    1a0e:	1a 94       	dec	r1
    1a10:	69 f7       	brne	.-38     	; 0x19ec <__udivmodsi4_loop>
    1a12:	60 95       	com	r22
    1a14:	70 95       	com	r23
    1a16:	80 95       	com	r24
    1a18:	90 95       	com	r25
    1a1a:	9b 01       	movw	r18, r22
    1a1c:	ac 01       	movw	r20, r24
    1a1e:	bd 01       	movw	r22, r26
    1a20:	cf 01       	movw	r24, r30
    1a22:	08 95       	ret

00001a24 <__divmodsi4>:
    1a24:	05 2e       	mov	r0, r21
    1a26:	97 fb       	bst	r25, 7
    1a28:	1e f4       	brtc	.+6      	; 0x1a30 <__divmodsi4+0xc>
    1a2a:	00 94       	com	r0
    1a2c:	0e 94 29 0d 	call	0x1a52	; 0x1a52 <__negsi2>
    1a30:	57 fd       	sbrc	r21, 7
    1a32:	07 d0       	rcall	.+14     	; 0x1a42 <__divmodsi4_neg2>
    1a34:	0e 94 f0 0c 	call	0x19e0	; 0x19e0 <__udivmodsi4>
    1a38:	07 fc       	sbrc	r0, 7
    1a3a:	03 d0       	rcall	.+6      	; 0x1a42 <__divmodsi4_neg2>
    1a3c:	4e f4       	brtc	.+18     	; 0x1a50 <__divmodsi4_exit>
    1a3e:	0c 94 29 0d 	jmp	0x1a52	; 0x1a52 <__negsi2>

00001a42 <__divmodsi4_neg2>:
    1a42:	50 95       	com	r21
    1a44:	40 95       	com	r20
    1a46:	30 95       	com	r19
    1a48:	21 95       	neg	r18
    1a4a:	3f 4f       	sbci	r19, 0xFF	; 255
    1a4c:	4f 4f       	sbci	r20, 0xFF	; 255
    1a4e:	5f 4f       	sbci	r21, 0xFF	; 255

00001a50 <__divmodsi4_exit>:
    1a50:	08 95       	ret

00001a52 <__negsi2>:
    1a52:	90 95       	com	r25
    1a54:	80 95       	com	r24
    1a56:	70 95       	com	r23
    1a58:	61 95       	neg	r22
    1a5a:	7f 4f       	sbci	r23, 0xFF	; 255
    1a5c:	8f 4f       	sbci	r24, 0xFF	; 255
    1a5e:	9f 4f       	sbci	r25, 0xFF	; 255
    1a60:	08 95       	ret

00001a62 <__tablejump2__>:
    1a62:	ee 0f       	add	r30, r30
    1a64:	ff 1f       	adc	r31, r31
    1a66:	05 90       	lpm	r0, Z+
    1a68:	f4 91       	lpm	r31, Z
    1a6a:	e0 2d       	mov	r30, r0
    1a6c:	09 94       	ijmp

00001a6e <__muluhisi3>:
    1a6e:	0e 94 56 0d 	call	0x1aac	; 0x1aac <__umulhisi3>
    1a72:	a5 9f       	mul	r26, r21
    1a74:	90 0d       	add	r25, r0
    1a76:	b4 9f       	mul	r27, r20
    1a78:	90 0d       	add	r25, r0
    1a7a:	a4 9f       	mul	r26, r20
    1a7c:	80 0d       	add	r24, r0
    1a7e:	91 1d       	adc	r25, r1
    1a80:	11 24       	eor	r1, r1
    1a82:	08 95       	ret

00001a84 <__udivmodhi4>:
    1a84:	aa 1b       	sub	r26, r26
    1a86:	bb 1b       	sub	r27, r27
    1a88:	51 e1       	ldi	r21, 0x11	; 17
    1a8a:	07 c0       	rjmp	.+14     	; 0x1a9a <__udivmodhi4_ep>

00001a8c <__udivmodhi4_loop>:
    1a8c:	aa 1f       	adc	r26, r26
    1a8e:	bb 1f       	adc	r27, r27
    1a90:	a6 17       	cp	r26, r22
    1a92:	b7 07       	cpc	r27, r23
    1a94:	10 f0       	brcs	.+4      	; 0x1a9a <__udivmodhi4_ep>
    1a96:	a6 1b       	sub	r26, r22
    1a98:	b7 0b       	sbc	r27, r23

00001a9a <__udivmodhi4_ep>:
    1a9a:	88 1f       	adc	r24, r24
    1a9c:	99 1f       	adc	r25, r25
    1a9e:	5a 95       	dec	r21
    1aa0:	a9 f7       	brne	.-22     	; 0x1a8c <__udivmodhi4_loop>
    1aa2:	80 95       	com	r24
    1aa4:	90 95       	com	r25
    1aa6:	bc 01       	movw	r22, r24
    1aa8:	cd 01       	movw	r24, r26
    1aaa:	08 95       	ret

00001aac <__umulhisi3>:
    1aac:	a2 9f       	mul	r26, r18
    1aae:	b0 01       	movw	r22, r0
    1ab0:	b3 9f       	mul	r27, r19
    1ab2:	c0 01       	movw	r24, r0
    1ab4:	a3 9f       	mul	r26, r19
    1ab6:	70 0d       	add	r23, r0
    1ab8:	81 1d       	adc	r24, r1
    1aba:	11 24       	eor	r1, r1
    1abc:	91 1d       	adc	r25, r1
    1abe:	b2 9f       	mul	r27, r18
    1ac0:	70 0d       	add	r23, r0
    1ac2:	81 1d       	adc	r24, r1
    1ac4:	11 24       	eor	r1, r1
    1ac6:	91 1d       	adc	r25, r1
    1ac8:	08 95       	ret

00001aca <_exit>:
    1aca:	f8 94       	cli

00001acc <__stop_program>:
    1acc:	ff cf       	rjmp	.-2      	; 0x1acc <__stop_program>
